
PE_Group_34_Edge.elf:     file format elf32-littlenios2
PE_Group_34_Edge.elf
architecture: nios2:r1, flags 0x00000112:
EXEC_P, HAS_SYMS, D_PAGED
start address 0x04080264

Program Header:
    LOAD off    0x00001020 vaddr 0x04080020 paddr 0x04080020 align 2**12
         filesz 0x00000020 memsz 0x00000020 flags r-x
    LOAD off    0x00001040 vaddr 0x04080040 paddr 0x04080040 align 2**12
         filesz 0x0001c3a8 memsz 0x0001c3a8 flags r-x
    LOAD off    0x0001e000 vaddr 0x00000000 paddr 0x0409c3e8 align 2**12
         filesz 0x00002438 memsz 0x0000259c flags rw-

Sections:
Idx Name          Size      VMA       LMA       File off  Algn
  0 .entry        00000020  04080020  04080020  00001020  2**5
                  CONTENTS, ALLOC, LOAD, READONLY, CODE
  1 .exceptions   00000224  04080040  04080040  00001040  2**2
                  CONTENTS, ALLOC, LOAD, READONLY, CODE
  2 .text         0001c184  04080264  04080264  00001264  2**2
                  CONTENTS, ALLOC, LOAD, READONLY, CODE
  3 .rodata       000007e8  00000000  0409c3e8  0001e000  2**2
                  CONTENTS, ALLOC, LOAD, READONLY, DATA
  4 .rwdata       00001c50  000007e8  0409cbd0  0001e7e8  2**2
                  CONTENTS, ALLOC, LOAD, DATA, SMALL_DATA
  5 .bss          00000164  00002438  0409e820  00020438  2**2
                  ALLOC, SMALL_DATA
  6 .uniphy_ddr3  00000000  0000259c  0000259c  00020438  2**0
                  CONTENTS
  7 .onchip_memory 00000000  0409e820  0409e820  00020438  2**0
                  CONTENTS
  8 .dma_read_memory 00000000  04101000  04101000  00020438  2**0
                  CONTENTS
  9 .comment      00000023  00000000  00000000  00020438  2**0
                  CONTENTS, READONLY
 10 .debug_aranges 000014a0  00000000  00000000  00020460  2**3
                  CONTENTS, READONLY, DEBUGGING
 11 .debug_info   000383bf  00000000  00000000  00021900  2**0
                  CONTENTS, READONLY, DEBUGGING
 12 .debug_abbrev 0000db63  00000000  00000000  00059cbf  2**0
                  CONTENTS, READONLY, DEBUGGING
 13 .debug_line   000121ea  00000000  00000000  00067822  2**0
                  CONTENTS, READONLY, DEBUGGING
 14 .debug_frame  000030d4  00000000  00000000  00079a0c  2**2
                  CONTENTS, READONLY, DEBUGGING
 15 .debug_str    00004c78  00000000  00000000  0007cae0  2**0
                  CONTENTS, READONLY, DEBUGGING
 16 .debug_loc    0002664f  00000000  00000000  00081758  2**0
                  CONTENTS, READONLY, DEBUGGING
 17 .debug_alt_sim_info 00000030  00000000  00000000  000a7da8  2**2
                  CONTENTS, READONLY, DEBUGGING
 18 .debug_ranges 00002340  00000000  00000000  000a7dd8  2**3
                  CONTENTS, READONLY, DEBUGGING
 19 .thread_model 00000003  00000000  00000000  000ae476  2**0
                  CONTENTS, READONLY
 20 .cpu          00000003  00000000  00000000  000ae479  2**0
                  CONTENTS, READONLY
 21 .qsys         00000001  00000000  00000000  000ae47c  2**0
                  CONTENTS, READONLY
 22 .simulation_enabled 00000001  00000000  00000000  000ae47d  2**0
                  CONTENTS, READONLY
 23 .sysid_hash   00000004  00000000  00000000  000ae47e  2**0
                  CONTENTS, READONLY
 24 .sysid_base   00000004  00000000  00000000  000ae482  2**0
                  CONTENTS, READONLY
 25 .sysid_time   00000004  00000000  00000000  000ae486  2**0
                  CONTENTS, READONLY
 26 .stderr_dev   00000009  00000000  00000000  000ae48a  2**0
                  CONTENTS, READONLY
 27 .stdin_dev    00000009  00000000  00000000  000ae493  2**0
                  CONTENTS, READONLY
 28 .stdout_dev   00000009  00000000  00000000  000ae49c  2**0
                  CONTENTS, READONLY
 29 .sopc_system_name 0000000c  00000000  00000000  000ae4a5  2**0
                  CONTENTS, READONLY
 30 .quartus_project_dir 00000023  00000000  00000000  000ae4b1  2**0
                  CONTENTS, READONLY
 31 .jdi          00007cd3  00000000  00000000  000ae4d4  2**0
                  CONTENTS, READONLY
 32 .sopcinfo     000e8405  00000000  00000000  000b61a7  2**0
                  CONTENTS, READONLY
SYMBOL TABLE:
04080020 l    d  .entry	00000000 .entry
04080040 l    d  .exceptions	00000000 .exceptions
04080264 l    d  .text	00000000 .text
00000000 l    d  .rodata	00000000 .rodata
000007e8 l    d  .rwdata	00000000 .rwdata
00002438 l    d  .bss	00000000 .bss
0000259c l    d  .uniphy_ddr3	00000000 .uniphy_ddr3
0409e820 l    d  .onchip_memory	00000000 .onchip_memory
04101000 l    d  .dma_read_memory	00000000 .dma_read_memory
00000000 l    d  .comment	00000000 .comment
00000000 l    d  .debug_aranges	00000000 .debug_aranges
00000000 l    d  .debug_info	00000000 .debug_info
00000000 l    d  .debug_abbrev	00000000 .debug_abbrev
00000000 l    d  .debug_line	00000000 .debug_line
00000000 l    d  .debug_frame	00000000 .debug_frame
00000000 l    d  .debug_str	00000000 .debug_str
00000000 l    d  .debug_loc	00000000 .debug_loc
00000000 l    d  .debug_alt_sim_info	00000000 .debug_alt_sim_info
00000000 l    d  .debug_ranges	00000000 .debug_ranges
00000000 l    df *ABS*	00000000 ../PE_Group_34_Edge_bsp//obj/HAL/src/crt0.o
040802ac l       .text	00000000 alt_after_alt_main
00000000 l    df *ABS*	00000000 alt_irq_handler.c
00000000 l    df *ABS*	00000000 alt_instruction_exception_entry.c
00000000 l    df *ABS*	00000000 hello_world.c
00000000 l    df *ABS*	00000000 lib2-divmod.c
00000000 l    df *ABS*	00000000 addsf3.c
00000000 l    df *ABS*	00000000 eqsf2.c
00000000 l    df *ABS*	00000000 mulsf3.c
00000000 l    df *ABS*	00000000 libgcc2.c
00000000 l    df *ABS*	00000000 libgcc2.c
00000000 l    df *ABS*	00000000 exit.c
00000000 l    df *ABS*	00000000 fclose.c
00000000 l    df *ABS*	00000000 fflush.c
00000000 l    df *ABS*	00000000 findfp.c
0408325c l     F .text	00000008 __fp_unlock
04083270 l     F .text	0000019c __sinit.part.1
0408340c l     F .text	00000008 __fp_lock
00000000 l    df *ABS*	00000000 fopen.c
00000000 l    df *ABS*	00000000 mallocr.c
00000000 l    df *ABS*	00000000 fscanf.c
00000000 l    df *ABS*	00000000 fseek.c
00000000 l    df *ABS*	00000000 fseeko.c
00000000 l    df *ABS*	00000000 fstatr.c
00000000 l    df *ABS*	00000000 fwalk.c
00000000 l    df *ABS*	00000000 impure.c
000007e8 l     O .rwdata	00000424 impure_data
00000000 l    df *ABS*	00000000 int_errno.c
00000000 l    df *ABS*	00000000 makebuf.c
00000000 l    df *ABS*	00000000 malloc.c
00000000 l    df *ABS*	00000000 mallocr.c
00000000 l    df *ABS*	00000000 memset.c
00000000 l    df *ABS*	00000000 openr.c
00000000 l    df *ABS*	00000000 printf.c
00000000 l    df *ABS*	00000000 puts.c
00000000 l    df *ABS*	00000000 refill.c
04084eb4 l     F .text	0000001c lflush
00000000 l    df *ABS*	00000000 sbrkr.c
00000000 l    df *ABS*	00000000 stdio.c
00000000 l    df *ABS*	00000000 strlen.c
00000000 l    df *ABS*	00000000 vfprintf.c
000001d6 l     O .rodata	00000010 zeroes.4404
040874e0 l     F .text	000000bc __sbprintf
000001e6 l     O .rodata	00000010 blanks.4403
00000000 l    df *ABS*	00000000 vfscanf.c
000001fe l     O .rodata	00000022 basefix.4359
00000000 l    df *ABS*	00000000 writer.c
00000000 l    df *ABS*	00000000 wsetup.c
00000000 l    df *ABS*	00000000 closer.c
00000000 l    df *ABS*	00000000 __call_atexit.c
00000000 l    df *ABS*	00000000 ctype_.c
00000321 l     O .rodata	00000180 _ctype_b
00000000 l    df *ABS*	00000000 dtoa.c
040891b0 l     F .text	00000200 quorem
00000000 l    df *ABS*	00000000 flags.c
00000000 l    df *ABS*	00000000 fread.c
00000000 l    df *ABS*	00000000 fvwrite.c
00000000 l    df *ABS*	00000000 isattyr.c
00000000 l    df *ABS*	00000000 iswspace.c
00000000 l    df *ABS*	00000000 locale.c
00001034 l     O .rwdata	00000020 lc_ctype_charset
00001014 l     O .rwdata	00000020 lc_message_charset
00001054 l     O .rwdata	00000038 lconv
00000000 l    df *ABS*	00000000 lseekr.c
00000000 l    df *ABS*	00000000 mbrtowc.c
00000000 l    df *ABS*	00000000 mbtowc_r.c
00000000 l    df *ABS*	00000000 memchr.c
00000000 l    df *ABS*	00000000 memcpy.c
00000000 l    df *ABS*	00000000 memmove.c
00000000 l    df *ABS*	00000000 mprec.c
000004c0 l     O .rodata	0000000c p05.2768
00000000 l    df *ABS*	00000000 readr.c
00000000 l    df *ABS*	00000000 mallocr.c
00000000 l    df *ABS*	00000000 s_fpclassify.c
00000000 l    df *ABS*	00000000 sccl.c
00000000 l    df *ABS*	00000000 sf_nan.c
00000000 l    df *ABS*	00000000 sprintf.c
00000000 l    df *ABS*	00000000 strcmp.c
00000000 l    df *ABS*	00000000 strtod.c
0408d218 l     F .text	00000064 sulp
00000608 l     O .rodata	00000014 fpi.2737
0000061c l     O .rodata	00000028 tinytens
000005f4 l     O .rodata	00000014 fpinan.2773
00000000 l    df *ABS*	00000000 strtol.c
00000000 l    df *ABS*	00000000 strtoll_r.c
00000000 l    df *ABS*	00000000 strtoul.c
00000000 l    df *ABS*	00000000 strtoull_r.c
00000000 l    df *ABS*	00000000 vfprintf.c
00000644 l     O .rodata	00000010 zeroes.4389
00000654 l     O .rodata	00000010 blanks.4388
00000000 l    df *ABS*	00000000 ungetc.c
00000000 l    df *ABS*	00000000 vfprintf.c
040918c4 l     F .text	000000fc __sprint_r.part.0
00000674 l     O .rodata	00000010 blanks.4348
00000664 l     O .rodata	00000010 zeroes.4349
04092e50 l     F .text	000000bc __sbprintf
00000000 l    df *ABS*	00000000 mallocr.c
00000000 l    df *ABS*	00000000 fputwc.c
00000000 l    df *ABS*	00000000 gdtoa-gethex.c
040931d8 l     F .text	00000100 rshift
00000000 l    df *ABS*	00000000 gdtoa-hexnan.c
00000000 l    df *ABS*	00000000 strncmp.c
00000000 l    df *ABS*	00000000 vfprintf.c
00000794 l     O .rodata	00000010 blanks.4332
00000784 l     O .rodata	00000010 zeroes.4333
00000000 l    df *ABS*	00000000 wbuf.c
00000000 l    df *ABS*	00000000 wcrtomb.c
00000000 l    df *ABS*	00000000 wctomb_r.c
00000000 l    df *ABS*	00000000 libgcc2.c
00000000 l    df *ABS*	00000000 libgcc2.c
00000000 l    df *ABS*	00000000 libgcc2.c
00000000 l    df *ABS*	00000000 libgcc2.c
00000000 l    df *ABS*	00000000 gesf2.c
00000000 l    df *ABS*	00000000 lesf2.c
00000000 l    df *ABS*	00000000 adddf3.c
00000000 l    df *ABS*	00000000 divdf3.c
00000000 l    df *ABS*	00000000 eqdf2.c
00000000 l    df *ABS*	00000000 gedf2.c
00000000 l    df *ABS*	00000000 ledf2.c
00000000 l    df *ABS*	00000000 muldf3.c
00000000 l    df *ABS*	00000000 subdf3.c
00000000 l    df *ABS*	00000000 fixdfsi.c
00000000 l    df *ABS*	00000000 floatsidf.c
00000000 l    df *ABS*	00000000 floatunsidf.c
00000000 l    df *ABS*	00000000 truncdfsf2.c
00000000 l    df *ABS*	00000000 alt_close.c
04098a34 l     F .text	0000003c alt_get_errno
00000000 l    df *ABS*	00000000 alt_dev.c
04098b40 l     F .text	0000002c alt_dev_null_write
00000000 l    df *ABS*	00000000 alt_errno.c
00000000 l    df *ABS*	00000000 alt_exit.c
00000000 l    df *ABS*	00000000 alt_fstat.c
04098ba0 l     F .text	0000003c alt_get_errno
00000000 l    df *ABS*	00000000 alt_isatty.c
04098c8c l     F .text	0000003c alt_get_errno
00000000 l    df *ABS*	00000000 alt_load.c
04098d6c l     F .text	00000068 alt_load_section
00000000 l    df *ABS*	00000000 alt_lseek.c
04098e58 l     F .text	0000003c alt_get_errno
00000000 l    df *ABS*	00000000 alt_main.c
00000000 l    df *ABS*	00000000 alt_malloc_lock.c
00000000 l    df *ABS*	00000000 alt_open.c
0409902c l     F .text	0000003c alt_get_errno
04099068 l     F .text	000000c4 alt_file_locked
00000000 l    df *ABS*	00000000 alt_read.c
04099280 l     F .text	0000003c alt_get_errno
00000000 l    df *ABS*	00000000 alt_release_fd.c
00000000 l    df *ABS*	00000000 alt_sbrk.c
000023d0 l     O .rwdata	00000004 heap_end
00000000 l    df *ABS*	00000000 alt_write.c
040994cc l     F .text	0000003c alt_get_errno
00000000 l    df *ABS*	00000000 alt_sys_init.c
04099600 l     F .text	00000034 alt_dev_reg
00001234 l     O .rwdata	000000a4 dma_priv
000012d8 l     O .rwdata	0000001c dma_tx
000012f4 l     O .rwdata	0000001c dma_rx
00001310 l     O .rwdata	00001060 jtag_uart
00002370 l     O .rwdata	00000028 altera_hostfs
00000000 l    df *ABS*	00000000 altera_avalon_dma.c
04099714 l     F .text	00000034 alt_dma_txchan_reg
04099748 l     F .text	00000034 alt_dma_rxchan_reg
04099874 l     F .text	0000009c alt_avalon_dma_launch_txonly
04099910 l     F .text	0000009c alt_avalon_dma_launch_rxonly
040999ac l     F .text	00000344 alt_avalon_dma_ioctl
0409a064 l     F .text	000001c0 alt_avalon_dma_irq
00000000 l    df *ABS*	00000000 altera_avalon_jtag_uart_fd.c
00000000 l    df *ABS*	00000000 altera_avalon_jtag_uart_init.c
0409a4fc l     F .text	0000020c altera_avalon_jtag_uart_irq
0409a708 l     F .text	000000a0 altera_avalon_jtag_uart_timeout
00000000 l    df *ABS*	00000000 altera_avalon_jtag_uart_ioctl.c
00000000 l    df *ABS*	00000000 altera_avalon_jtag_uart_read.c
00000000 l    df *ABS*	00000000 altera_avalon_jtag_uart_write.c
00000000 l    df *ABS*	00000000 altera_avalon_performance_counter.c
00000000 l    df *ABS*	00000000 altera_avalon_timer_sc.c
0409aed0 l     F .text	00000078 alt_avalon_timer_sc_irq
00000000 l    df *ABS*	00000000 altera_hostfs.c
000023d4 l     O .rwdata	00000009 hcinfo.2538
000023e0 l     O .rwdata	0000000a hcinfo.2551
000023ec l     O .rwdata	00000009 hcinfo.2560
000023f8 l     O .rwdata	0000000a hcinfo.2573
00002404 l     O .rwdata	0000000a hcinfo.2586
00002410 l     O .rwdata	0000000a hcinfo.2612
00000000 l    df *ABS*	00000000 alt_alarm_start.c
00000000 l    df *ABS*	00000000 alt_dcache_flush_all.c
00000000 l    df *ABS*	00000000 alt_dev_llist_insert.c
0409b5bc l     F .text	0000003c alt_get_errno
00000000 l    df *ABS*	00000000 alt_dma_rxchan_open.c
0409b69c l     F .text	0000003c alt_get_errno
00000000 l    df *ABS*	00000000 alt_dma_txchan_open.c
0409b72c l     F .text	0000003c alt_get_errno
00000000 l    df *ABS*	00000000 alt_do_ctors.c
00000000 l    df *ABS*	00000000 alt_do_dtors.c
00000000 l    df *ABS*	00000000 alt_find_dev.c
00000000 l    df *ABS*	00000000 alt_find_file.c
00000000 l    df *ABS*	00000000 alt_fs_reg.c
00000000 l    df *ABS*	00000000 alt_get_fd.c
00000000 l    df *ABS*	00000000 alt_icache_flush_all.c
00000000 l    df *ABS*	00000000 alt_iic.c
00000000 l    df *ABS*	00000000 alt_iic_isr_register.c
00000000 l    df *ABS*	00000000 alt_io_redirect.c
0409be0c l     F .text	000000c4 alt_open_fd
00000000 l    df *ABS*	00000000 alt_irq_vars.c
00000000 l    df *ABS*	00000000 alt_tick.c
00000000 l    df *ABS*	00000000 altera_nios2_gen2_irq.c
00000000 l    df *ABS*	00000000 alt_icache_flush.c
00000000 l    df *ABS*	00000000 atexit.c
00000000 l    df *ABS*	00000000 memcmp.c
00000000 l    df *ABS*	00000000 __atexit.c
00002470 g     O .bss	00000004 alt_instruction_exception_handler
0408c7f0 g     F .text	00000074 _mprec_log10
0408c8dc g     F .text	0000008c __any_on
0408b200 g     F .text	00000054 _isatty_r
000004cc g     O .rodata	00000028 __mprec_tinytens
04098f68 g     F .text	0000007c alt_main
04084de0 g     F .text	000000c0 _puts_r
0000249c g     O .bss	00000100 alt_irq
0408b360 g     F .text	00000060 _lseek_r
0409cbd0 g       *ABS*	00000000 __flash_rwdata_start
0408aa38 g     F .text	000000ac __sflags
0409741c g     F .text	00000088 .hidden __eqdf2
0000259c g       *ABS*	00000000 __alt_heap_start
04084da4 g     F .text	0000003c printf
04095398 g     F .text	0000009c _wcrtomb_r
040851d0 g     F .text	0000005c __sseek
040835ac g     F .text	00000010 __sinit
0409aeac g     F .text	00000024 alt_get_cpu_freq
0409a224 g     F .text	000000b4 alt_avalon_dma_init
04095240 g     F .text	00000140 __swbuf_r
0408b284 g     F .text	0000007c _setlocale_r
04083414 g     F .text	00000068 __sfmoreglue
040918ac g     F .text	00000018 ungetc
04099008 g     F .text	00000024 __malloc_unlock
0409afc4 g     F .text	0000011c alt_hostfs_open
0408d27c g     F .text	000015f8 _strtod_r
0408b810 g     F .text	0000015c memmove
04083594 g     F .text	00000018 _cleanup
0408b96c g     F .text	000000a8 _Balloc
040974a4 g     F .text	000000dc .hidden __gtdf2
0409c0f0 g     F .text	00000024 altera_nios2_gen2_irq_init
04080020 g     F .entry	0000001c __reset
04080040 g       *ABS*	00000000 __flash_exceptions_start
04084018 g     F .text	0000005c _fstat_r
0000243c g     O .bss	00000004 errno
04088dc0 g     F .text	0000001c __svfscanf
0408514c g     F .text	00000008 __seofread
04094004 g     F .text	0000123c ___svfiprintf_internal_r
0000245c g     O .bss	00000004 alt_argv
0000a398 g       *ABS*	00000000 _gp
04083b3c g     F .text	0000003c fscanf
04080578 g     F .text	00000194 gemm_no_tile
0409b768 g     F .text	00000054 alt_dma_txchan_open
000010b4 g     O .rwdata	00000180 alt_fd_list
0409b1fc g     F .text	00000068 alt_hostfs_seek
0409b87c g     F .text	00000090 alt_find_dev
0408b6c8 g     F .text	00000148 memcpy
04093b08 g     F .text	0000025c __hexnan
04083264 g     F .text	0000000c _cleanup_r
040808a8 g     F .text	000001a8 gemm_cpu
04098708 g     F .text	000000dc .hidden __floatsidf
04080a50 g     F .text	00000130 PE_Instruction_Block
0409ba14 g     F .text	00000080 alt_fs_reg
0409bed0 g     F .text	0000007c alt_io_redirect
04097580 g     F .text	000000f4 .hidden __ltdf2
0409c3e8 g       *ABS*	00000000 __DTOR_END__
04084ea0 g     F .text	00000014 puts
0409c1a4 g     F .text	0000009c alt_exception_cause_generated_bad_addr
0408b46c g     F .text	000000d8 mbrtowc
0408cf2c g     F .text	00000074 __fpclassifyd
04088ddc g     F .text	0000004c _vfscanf_r
0408c74c g     F .text	000000a4 __ratio
04092e34 g     F .text	0000001c __vfiprintf_internal
0409a900 g     F .text	0000021c altera_avalon_jtag_uart_read
040843b8 g     F .text	00000014 malloc
04084d74 g     F .text	00000030 _printf_r
0408241c g     F .text	00000064 .hidden __udivsi3
04098cc8 g     F .text	000000a4 isatty
0408b254 g     F .text	00000030 iswspace
0000051c g     O .rodata	000000c8 __mprec_tens
0408b300 g     F .text	0000000c __locale_charset
040961c0 g     F .text	000000c8 .hidden __lesf2
040955e0 g     F .text	00000074 .hidden __fixunsdfsi
0409c114 g     F .text	00000090 alt_icache_flush
00002448 g     O .bss	00000004 __malloc_top_pad
0409ae48 g     F .text	00000040 perf_get_num_starts
0408f130 g     F .text	0000001c strtoul
000023ac g     O .rwdata	00000004 __mb_cur_max
0408b330 g     F .text	0000000c _localeconv_r
0408f14c g     F .text	00000320 _strtoull_r
0408bd78 g     F .text	0000003c __i2b
0408ad44 g     F .text	000004bc __sfvwrite_r
040850a4 g     F .text	00000054 _sbrk_r
0409b124 g     F .text	0000006c alt_hostfs_read
0408c968 g     F .text	00000060 _read_r
000023c8 g     O .rwdata	00000004 alt_max_fd
04082eb0 g     F .text	000000f0 _fclose_r
0408322c g     F .text	00000030 fflush
00002444 g     O .bss	00000004 __malloc_max_sbrked_mem
04096288 g     F .text	000008ac .hidden __adddf3
040829a0 g     F .text	00000078 .hidden __nesf2
0409977c g     F .text	000000f8 alt_avalon_dma_launch_bidir
0408c4f4 g     F .text	0000010c __b2d
0409b6d8 g     F .text	00000054 alt_dma_rxchan_open
04095bcc g     F .text	00000538 .hidden __umoddi3
04098e94 g     F .text	000000d4 lseek
00002398 g     O .rwdata	00000004 _global_impure_ptr
0408c9c8 g     F .text	00000564 _realloc_r
0000259c g       *ABS*	00000000 __bss_end
0409bd1c g     F .text	000000f0 alt_iic_isr_register
0409bfe8 g     F .text	00000108 alt_tick
00000684 g     O .rodata	00000100 __hexdig
04095654 g     F .text	00000578 .hidden __udivdi3
04093134 g     F .text	00000024 _fputwc_r
000004f4 g     O .rodata	00000028 __mprec_bigtens
0408bb5c g     F .text	00000104 __s2b
040987e4 g     F .text	000000a8 .hidden __floatunsidf
0408c234 g     F .text	00000060 __mcmp
040835cc g     F .text	00000018 __fp_lock_all
0409bcd0 g     F .text	0000004c alt_ic_irq_enabled
0409bf4c g     F .text	0000009c alt_alarm_stop
0408ebc4 g     F .text	0000001c strtol
00002464 g     O .bss	00000004 alt_irq_active
04083bb8 g     F .text	00000444 _fseeko_r
0409b0e0 g     F .text	00000044 alt_hostfs_close
0408011c g     F .exceptions	000000d4 alt_irq_handler
0000108c g     O .rwdata	00000028 alt_dev_null
00002438 g     O .bss	00000004 number
0409b574 g     F .text	00000048 alt_dcache_flush_all
0408bc60 g     F .text	00000068 __hi0bits
04098688 g     F .text	00000080 .hidden __fixdfsi
0408e874 g     F .text	00000018 strtod
00002438 g       *ABS*	00000000 __ram_rwdata_end
04080000 g       *ABS*	00000000 __alt_mem_onchip_memory
000023c0 g     O .rwdata	00000008 alt_dev_list
04099eb8 g     F .text	00000074 alt_avalon_dma_space
04099508 g     F .text	000000f8 write
04096104 g     F .text	000000bc .hidden __gtsf2
000007e8 g       *ABS*	00000000 __ram_rodata_end
04098bdc g     F .text	000000b0 fstat
04097580 g     F .text	000000f4 .hidden __ledf2
0408070c g     F .text	0000019c gemm_nn
0408bfac g     F .text	00000140 __pow5mult
040919d8 g     F .text	0000145c ___vfiprintf_internal_r
00002454 g     O .bss	00000004 __nlocale_changed
04082480 g     F .text	00000058 .hidden __umodsi3
0000259c g       *ABS*	00000000 end
04083ffc g     F .text	0000001c fseeko
04083b9c g     F .text	0000001c fseek
0409a43c g     F .text	000000c0 altera_avalon_jtag_uart_init
040801f0 g     F .exceptions	00000074 alt_instruction_exception_entry
0409c3e8 g       *ABS*	00000000 __CTOR_LIST__
04000000 g       *ABS*	00000000 __alt_stack_pointer
0409af48 g     F .text	0000007c alt_avalon_timer_sc_init
04082e14 g     F .text	00000064 .hidden __clzsi2
0409ab1c g     F .text	00000224 altera_avalon_jtag_uart_write
040835bc g     F .text	00000004 __sfp_lock_acquire
0408b5e4 g     F .text	000000e4 memchr
040852cc g     F .text	000021f8 ___vfprintf_internal_r
0408d078 g     F .text	00000058 _sprintf_r
0408382c g     F .text	00000310 _free_r
0408b30c g     F .text	00000010 __locale_mb_cur_max
04099f2c g     F .text	00000138 alt_avalon_dma_send
04089030 g     F .text	00000180 __call_exitprocs
00002424 g     O .rwdata	00000008 alt_dma_txchan_list
04080b80 g     F .text	00000650 PE_Instruction
00002450 g     O .bss	00000004 __mlocale_changed
000023a0 g     O .rwdata	00000004 __malloc_sbrk_base
04080264 g     F .text	0000004c _start
00002468 g     O .bss	00000004 _alt_tick_rate
0408ebe0 g     F .text	00000304 _strtoll_r
0408c0ec g     F .text	00000148 __lshift
0000246c g     O .bss	00000004 _alt_nticks
040992bc g     F .text	000000fc read
0409966c g     F .text	000000a8 alt_sys_init
04093e34 g     F .text	000001d0 __ssprint_r
04084d14 g     F .text	00000060 _open_r
0409c2d0 g     F .text	00000118 __register_exitproc
04093d64 g     F .text	000000d0 strncmp
04080370 g     F .text	00000208 im2col
0408bdb4 g     F .text	000001f8 __multiply
0409a7a8 g     F .text	00000068 altera_avalon_jtag_uart_close
000007e8 g       *ABS*	00000000 __ram_rwdata_start
00000000 g       *ABS*	00000000 __ram_rodata_start
00002474 g     O .bss	00000028 __malloc_current_mallinfo
040829a0 g     F .text	00000078 .hidden __eqsf2
0408c600 g     F .text	0000014c __d2b
0409a2d8 g     F .text	00000060 altera_avalon_jtag_uart_read_fd
0408eee4 g     F .text	0000024c _strtoul_r
0409ba94 g     F .text	000000a4 alt_get_fd
04088fdc g     F .text	00000054 _close_r
0409ad40 g     F .text	000000bc perf_get_section_time
0409c254 g     F .text	0000007c memcmp
0409a398 g     F .text	00000050 altera_avalon_jtag_uart_close_fd
0000259c g       *ABS*	00000000 __alt_stack_base
0409a3e8 g     F .text	00000054 altera_avalon_jtag_uart_ioctl_fd
04088e88 g     F .text	00000154 __swsetup_r
04096b34 g     F .text	000008e8 .hidden __divdf3
0408347c g     F .text	00000118 __sfp
0408c864 g     F .text	00000078 __copybits
0409adfc g     F .text	0000004c perf_get_total_time
00000c0c g     O .rwdata	00000408 __malloc_av_
040835c8 g     F .text	00000004 __sinit_lock_release
04097674 g     F .text	00000718 .hidden __muldf3
040850f8 g     F .text	00000054 __sread
0408ad10 g     F .text	00000034 fread
0409b90c g     F .text	00000108 alt_find_file
0409b5f8 g     F .text	000000a4 alt_dev_llist_insert
04098fe4 g     F .text	00000024 __malloc_lock
0409941c g     F .text	000000b0 sbrk
0408f46c g     F .text	000021d8 ___svfprintf_internal_r
040831d0 g     F .text	0000005c _fflush_r
04092f0c g     F .text	000000c4 _calloc_r
040836f0 g     F .text	00000018 fopen
00002438 g       *ABS*	00000000 __bss_start
04083b78 g     F .text	00000020 _fscanf_r
04084bec g     F .text	00000128 memset
040811d0 g     F .text	00001154 main
04099d38 g     F .text	00000048 alt_avalon_dma_rx_ioctl
00002460 g     O .bss	00000004 alt_envp
00002440 g     O .bss	00000004 __malloc_max_total_mem
0409a338 g     F .text	00000060 altera_avalon_jtag_uart_write_fd
04095380 g     F .text	00000018 __swbuf
040961c0 g     F .text	000000c8 .hidden __ltsf2
0408aae4 g     F .text	0000022c _fread_r
0408522c g     F .text	00000008 __sclose
04000000 g       *ABS*	00000000 __alt_heap_limit
04082fa0 g     F .text	00000014 fclose
00000000 g       *ABS*	00000000 __alt_mem_uniphy_ddr3
0408e98c g     F .text	00000238 _strtol_r
0409888c g     F .text	000001a8 .hidden __truncdfsf2
040893b0 g     F .text	00001688 _dtoa_r
040843e0 g     F .text	0000080c _malloc_r
040954f4 g     F .text	00000030 __ascii_wctomb
000023cc g     O .rwdata	00000004 alt_errno
04091644 g     F .text	000000d4 __submore
04084074 g     F .text	000000c4 _fwalk
0408b588 g     F .text	0000005c _mbtowc_r
04082324 g     F .text	00000084 .hidden __divsi3
04083708 g     F .text	00000124 _malloc_trim_r
0409c3e8 g       *ABS*	00000000 __CTOR_END__
04082a18 g     F .text	000003fc .hidden __mulsf3
0408d13c g     F .text	000000dc strcmp
0409c3e8 g       *ABS*	00000000 __flash_rodata_start
0409c3e8 g       *ABS*	00000000 __DTOR_LIST__
0409741c g     F .text	00000088 .hidden __nedf2
04101000 g       *ABS*	00000000 __alt_mem_dma_read_memory
04099634 g     F .text	00000038 alt_irq_init
040993b8 g     F .text	00000064 alt_release_fd
0408d0d0 g     F .text	0000006c sprintf
0000008b g     O .rodata	00000100 .hidden __clz_tab
0000244c g     O .bss	00000004 _PathLocale
0408e88c g     F .text	00000100 strtof
0409c240 g     F .text	00000014 atexit
04096104 g     F .text	000000bc .hidden __gesf2
04088e28 g     F .text	00000060 _write_r
0408b33c g     F .text	00000018 setlocale
0408d070 g     F .text	00000008 nanf
0000239c g     O .rwdata	00000004 _impure_ptr
00002458 g     O .bss	00000004 alt_argc
04082fb4 g     F .text	0000021c __sflush_r
0408b3c0 g     F .text	000000ac _mbrtowc_r
0409b81c g     F .text	00000060 _do_dtors
0408b328 g     F .text	00000008 __locale_cjk_lang
04083b98 g     F .text	00000004 _fseek_r
04084ed0 g     F .text	000001d4 __srefill_r
04080040 g       .exceptions	00000000 alt_irq_entry
0408b544 g     F .text	00000044 __ascii_mbtowc
0408c490 g     F .text	00000064 __ulp
040835e4 g     F .text	00000018 __fp_unlock_all
000023b8 g     O .rwdata	00000008 alt_fs_list
0409b190 g     F .text	0000006c alt_hostfs_write
040802b0 g     F .text	000000c0 get_pixel
04080040 g       *ABS*	00000000 __ram_exceptions_start
0408b354 g     F .text	0000000c localeconv
0409bb6c g     F .text	00000050 alt_ic_isr_register
00002438 g       *ABS*	00000000 _edata
0000259c g       *ABS*	00000000 _end
04092fd0 g     F .text	00000164 __fputwc
04080264 g       *ABS*	00000000 __ram_exceptions_end
04088d58 g     F .text	00000068 vfscanf
0409a810 g     F .text	000000f0 altera_avalon_jtag_uart_ioctl
0409bc44 g     F .text	0000008c alt_ic_irq_disable
04085154 g     F .text	0000007c __swrite
000023a4 g     O .rwdata	00000004 __malloc_trim_threshold
0409ae88 g     F .text	00000024 alt_get_performance_counter_base
0408b31c g     F .text	0000000c __locale_msgcharset
04082e78 g     F .text	00000038 exit
04084138 g     F .text	000000c4 _fwalk_reent
0408c294 g     F .text	000001fc __mdiff
040823a8 g     F .text	00000074 .hidden __modsi3
000023a8 g     O .rwdata	00000004 __ctype_ptr__
04000000 g       *ABS*	00000000 __alt_data_end
04080040 g     F .exceptions	00000000 alt_exception
040835c0 g     F .text	00000004 __sfp_lock_release
0408cfa0 g     F .text	000000d0 __sccl
00000220 g     O .rodata	00000101 _ctype_
000023b0 g     O .rwdata	00000004 __mbtowc
040835fc g     F .text	000000f4 _fopen_r
04098b6c g     F .text	00000034 _exit
0409b448 g     F .text	0000012c alt_alarm_start
04095580 g     F .text	00000060 .hidden __muldi3
040841fc g     F .text	000001bc __smakebuf_r
04085234 g     F .text	00000098 strlen
0409912c g     F .text	00000154 open
040974a4 g     F .text	000000dc .hidden __gedf2
040932d8 g     F .text	00000830 __gethex
000023b4 g     O .rwdata	00000004 __wctomb
040919c0 g     F .text	00000018 __sprint_r
0409bb38 g     F .text	00000034 alt_icache_flush_all
0000242c g     O .rwdata	00000004 alt_priority_mask
0409bbbc g     F .text	00000088 alt_ic_irq_enable
040874c4 g     F .text	0000001c __vfprintf_internal
04095524 g     F .text	0000005c _wctomb_r
04099d80 g     F .text	00000138 alt_avalon_dma_prepare
04097d8c g     F .text	000008fc .hidden __subdf3
0000241c g     O .rwdata	00000008 alt_dma_rxchan_list
0408bcc8 g     F .text	000000b0 __lo0bits
0408759c g     F .text	000017bc __svfscanf_r
00002430 g     O .rwdata	00000008 alt_alarm_list
04091718 g     F .text	00000194 _ungetc_r
0409b7bc g     F .text	00000060 _do_ctors
04095434 g     F .text	000000c0 wcrtomb
04098a70 g     F .text	000000d0 close
040824d8 g     F .text	000004c8 .hidden __addsf3
04098dd4 g     F .text	00000084 alt_load
04099cf0 g     F .text	00000048 alt_avalon_dma_tx_ioctl
04093158 g     F .text	00000080 fputwc
040843cc g     F .text	00000014 free
040835c4 g     F .text	00000004 __sinit_lock_acquire
0408ba3c g     F .text	00000120 __multadd
0408ba14 g     F .text	00000028 _Bfree
0409b264 g     F .text	000001e4 alt_hostfs_fstat



Disassembly of section .entry:

04080020 <__reset>:
#if NIOS2_ICACHE_SIZE > 0 && defined(ALT_ALLOW_CODE_AT_RESET) && (!defined(ALT_SIM_OPTIMIZE) || defined(NIOS2_ECC_PRESENT))
    /* Assume the instruction cache size is always a power of two. */
#if NIOS2_ICACHE_SIZE > 0x8000
    movhi r2, %hi(NIOS2_ICACHE_SIZE)
#else
    movui r2, NIOS2_ICACHE_SIZE
 4080020:	00840014 	movui	r2,4096
#endif

0:
    initi r2
 4080024:	1001483a 	initi	r2
    addi r2, r2, -NIOS2_ICACHE_LINE_SIZE
 4080028:	10bff804 	addi	r2,r2,-32
    bgt r2, zero, 0b
 408002c:	00bffd16 	blt	zero,r2,4080024 <__alt_mem_dma_read_memory+0xfff7f024>
 * Jump to the _start entry point in the .text section if reset code
 * is allowed or if optimizing for RTL simulation.
 */
#if defined(ALT_ALLOW_CODE_AT_RESET) || defined(ALT_SIM_OPTIMIZE)
    /* Jump to the _start entry point in the .text section. */
    movhi r1, %hi(_start)
 4080030:	00410234 	movhi	at,1032
    ori r1, r1, %lo(_start)
 4080034:	08409914 	ori	at,at,612
    jmp r1
 4080038:	0800683a 	jmp	at
 408003c:	00000000 	call	0 <__alt_mem_uniphy_ddr3>

Disassembly of section .exceptions:

04080040 <alt_exception>:

#else /* ALT_EXCEPTION_STACK disabled */
        /* 
         * Reserve space on normal stack for registers about to be pushed.
         */
        addi  sp, sp, -76
 4080040:	deffed04 	addi	sp,sp,-76
         * documentation for details).
         *
         * Leave a gap in the stack frame at 4(sp) for the muldiv handler to
         * store zero into.
         */
        stw   ra,  0(sp)
 4080044:	dfc00015 	stw	ra,0(sp)
        stw   r1,   8(sp)
 4080048:	d8400215 	stw	at,8(sp)
        stw   r2,  12(sp)
 408004c:	d8800315 	stw	r2,12(sp)
        stw   r3,  16(sp)
 4080050:	d8c00415 	stw	r3,16(sp)
        stw   r4,  20(sp)
 4080054:	d9000515 	stw	r4,20(sp)
        stw   r5,  24(sp)
 4080058:	d9400615 	stw	r5,24(sp)
        stw   r6,  28(sp)
 408005c:	d9800715 	stw	r6,28(sp)
        stw   r7,  32(sp)
 4080060:	d9c00815 	stw	r7,32(sp)
        rdctl r5, estatus   /* Read early to avoid usage stall */
 4080064:	000b307a 	rdctl	r5,estatus
        stw   r8,  36(sp)
 4080068:	da000915 	stw	r8,36(sp)
        stw   r9,  40(sp)
 408006c:	da400a15 	stw	r9,40(sp)
        stw   r10, 44(sp)
 4080070:	da800b15 	stw	r10,44(sp)
        stw   r11, 48(sp)
 4080074:	dac00c15 	stw	r11,48(sp)
        stw   r12, 52(sp)
 4080078:	db000d15 	stw	r12,52(sp)
        stw   r13, 56(sp)
 408007c:	db400e15 	stw	r13,56(sp)
        stw   r14, 60(sp)
 4080080:	db800f15 	stw	r14,60(sp)
        stw   r15, 64(sp)
 4080084:	dbc01015 	stw	r15,64(sp)
        /*
         * ea-4 contains the address of the instruction being executed
         * when the exception occured. For interrupt exceptions, we will
         * will be re-issue the isntruction. Store it in 72(sp)
         */
        stw   r5,  68(sp)  /* estatus */
 4080088:	d9401115 	stw	r5,68(sp)
        addi  r15, ea, -4  /* instruction that caused exception */
 408008c:	ebffff04 	addi	r15,ea,-4
        stw   r15,  72(sp)
 4080090:	dbc01215 	stw	r15,72(sp)
#else
        /*
         * Test to see if the exception was a software exception or caused 
         * by an external interrupt, and vector accordingly.
         */
        rdctl r4, ipending
 4080094:	0009313a 	rdctl	r4,ipending
        andi  r2, r5, 1
 4080098:	2880004c 	andi	r2,r5,1
        beq   r2, zero, .Lnot_irq
 408009c:	10000326 	beq	r2,zero,40800ac <alt_exception+0x6c>
        beq   r4, zero, .Lnot_irq
 40800a0:	20000226 	beq	r4,zero,40800ac <alt_exception+0x6c>
        /*
         * Now that all necessary registers have been preserved, call 
         * alt_irq_handler() to process the interrupts.
         */

        call alt_irq_handler
 40800a4:	408011c0 	call	408011c <alt_irq_handler>

        .section .exceptions.irqreturn, "xa"

        br    .Lexception_exit
 40800a8:	00000706 	br	40800c8 <alt_exception+0x88>
         * upon completion, so we write ea (address of instruction *after*
         * the one where the exception occured) into 72(sp). The actual
         * instruction that caused the exception is written in r2, which these
         * handlers will utilize.
         */
        stw ea, 72(sp) /* EA is PC+4 so will skip over instruction causing exception */
 40800ac:	df401215 	stw	ea,72(sp)
.Lunknown_16bit:
        addi.n r4, r4, 2 /* Need PC+2 to skip over instruction causing exception */
        stw r4, 72(sp)

#else /* CDX is not Enabled and all instructions are 32bits */
        ldw r2, -4(ea) /* Instruction value that caused exception */
 40800b0:	e8bfff17 	ldw	r2,-4(ea)
         * debugger is present) or go into an infinite loop since the
         * handling behavior is undefined; in that case we will not return here.
         */

        /* Load exception-causing address as first argument (r4) */
        addi   r4, ea, -4
 40800b4:	e93fff04 	addi	r4,ea,-4

        /* Call the instruction-exception entry */
        call   alt_instruction_exception_entry
 40800b8:	40801f00 	call	40801f0 <alt_instruction_exception_entry>
         * instruction
         *
         * Return code was 0: Skip. The instruction after the exception is
         * already stored in 72(sp).
         */
        bne   r2, r0, .Lexception_exit
 40800bc:	1000021e 	bne	r2,zero,40800c8 <alt_exception+0x88>

        /*
         * Otherwise, modify 72(sp) to re-issue the instruction that caused the
         * exception.
         */
        addi  r15, ea, -4  /* instruction that caused exception */
 40800c0:	ebffff04 	addi	r15,ea,-4
        stw   r15,  72(sp)
 40800c4:	dbc01215 	stw	r15,72(sp)
        /* 
         * Restore the saved registers, so that all general purpose registers 
         * have been restored to their state at the time the interrupt occured.
         */

        ldw   r5,  68(sp)
 40800c8:	d9401117 	ldw	r5,68(sp)
        ldw   ea,  72(sp)  /* This becomes the PC once eret is executed */
 40800cc:	df401217 	ldw	ea,72(sp)
        ldw   ra,   0(sp)
 40800d0:	dfc00017 	ldw	ra,0(sp)

        wrctl estatus, r5
 40800d4:	2801707a 	wrctl	estatus,r5

        ldw   r1,   8(sp)
 40800d8:	d8400217 	ldw	at,8(sp)
        ldw   r2,  12(sp)
 40800dc:	d8800317 	ldw	r2,12(sp)
        ldw   r3,  16(sp)
 40800e0:	d8c00417 	ldw	r3,16(sp)
        ldw   r4,  20(sp)
 40800e4:	d9000517 	ldw	r4,20(sp)
        ldw   r5,  24(sp)
 40800e8:	d9400617 	ldw	r5,24(sp)
        ldw   r6,  28(sp)
 40800ec:	d9800717 	ldw	r6,28(sp)
        ldw   r7,  32(sp)
 40800f0:	d9c00817 	ldw	r7,32(sp)

#if defined(ALT_EXCEPTION_STACK) && defined(ALT_STACK_CHECK)
        ldw   et, %gprel(alt_exception_old_stack_limit)(gp)
#endif

        ldw   r8,  36(sp)
 40800f4:	da000917 	ldw	r8,36(sp)
        ldw   r9,  40(sp)
 40800f8:	da400a17 	ldw	r9,40(sp)
        ldw   r10, 44(sp)
 40800fc:	da800b17 	ldw	r10,44(sp)
        ldw   r11, 48(sp)
 4080100:	dac00c17 	ldw	r11,48(sp)
        ldw   r12, 52(sp)
 4080104:	db000d17 	ldw	r12,52(sp)
        ldw   r13, 56(sp)
 4080108:	db400e17 	ldw	r13,56(sp)
        ldw   r14, 60(sp)
 408010c:	db800f17 	ldw	r14,60(sp)
        ldw   r15, 64(sp)
 4080110:	dbc01017 	ldw	r15,64(sp)
        stw   et, %gprel(alt_stack_limit_value)(gp)
        stw   zero, %gprel(alt_exception_old_stack_limit)(gp)
#endif /* ALT_STACK_CHECK */
        ldw   sp,  76(sp)
#else /* ALT_EXCEPTION_STACK disabled */
        addi  sp, sp, 76
 4080114:	dec01304 	addi	sp,sp,76

        /*
         * Return to the interrupted instruction.
         */

        eret
 4080118:	ef80083a 	eret

0408011c <alt_irq_handler>:
 * instruction is present if the macro ALT_CI_INTERRUPT_VECTOR defined.
 */

void alt_irq_handler (void) __attribute__ ((section (".exceptions")));
void alt_irq_handler (void)
{
 408011c:	defff904 	addi	sp,sp,-28
 4080120:	dfc00615 	stw	ra,24(sp)
 4080124:	df000515 	stw	fp,20(sp)
 4080128:	df000504 	addi	fp,sp,20
  
  /*
   * Notify the operating system that we are at interrupt level.
   */ 
  
  ALT_OS_INT_ENTER();
 408012c:	0001883a 	nop
#ifndef NIOS2_EIC_PRESENT
static ALT_INLINE alt_u32 ALT_ALWAYS_INLINE alt_irq_pending (void)
{
  alt_u32 active;

  NIOS2_READ_IPENDING (active);
 4080130:	0005313a 	rdctl	r2,ipending
 4080134:	e0bffe15 	stw	r2,-8(fp)

  return active;
 4080138:	e0bffe17 	ldw	r2,-8(fp)
   * Consider the case where the high priority interupt is asserted during
   * the interrupt entry sequence for a lower priority interrupt to see why
   * this is the case.
   */

  active = alt_irq_pending ();
 408013c:	e0bffb15 	stw	r2,-20(fp)

  do
  {
    i = 0;
 4080140:	e03ffd15 	stw	zero,-12(fp)
    mask = 1;
 4080144:	00800044 	movi	r2,1
 4080148:	e0bffc15 	stw	r2,-16(fp)
     * called to clear the interrupt condition.
     */

    do
    {
      if (active & mask)
 408014c:	e0fffb17 	ldw	r3,-20(fp)
 4080150:	e0bffc17 	ldw	r2,-16(fp)
 4080154:	1884703a 	and	r2,r3,r2
 4080158:	10001426 	beq	r2,zero,40801ac <alt_irq_handler+0x90>
      { 
#ifdef ALT_ENHANCED_INTERRUPT_API_PRESENT
        alt_irq[i].handler(alt_irq[i].context); 
 408015c:	00800034 	movhi	r2,0
 4080160:	10892704 	addi	r2,r2,9372
 4080164:	e0fffd17 	ldw	r3,-12(fp)
 4080168:	180690fa 	slli	r3,r3,3
 408016c:	10c5883a 	add	r2,r2,r3
 4080170:	10c00017 	ldw	r3,0(r2)
 4080174:	00800034 	movhi	r2,0
 4080178:	10892704 	addi	r2,r2,9372
 408017c:	e13ffd17 	ldw	r4,-12(fp)
 4080180:	200890fa 	slli	r4,r4,3
 4080184:	1105883a 	add	r2,r2,r4
 4080188:	10800104 	addi	r2,r2,4
 408018c:	10800017 	ldw	r2,0(r2)
 4080190:	1009883a 	mov	r4,r2
 4080194:	183ee83a 	callr	r3
#else
        alt_irq[i].handler(alt_irq[i].context, i); 
#endif
        break;
 4080198:	0001883a 	nop
#ifndef NIOS2_EIC_PRESENT
static ALT_INLINE alt_u32 ALT_ALWAYS_INLINE alt_irq_pending (void)
{
  alt_u32 active;

  NIOS2_READ_IPENDING (active);
 408019c:	0005313a 	rdctl	r2,ipending
 40801a0:	e0bfff15 	stw	r2,-4(fp)

  return active;
 40801a4:	e0bfff17 	ldw	r2,-4(fp)
 40801a8:	00000706 	br	40801c8 <alt_irq_handler+0xac>
      }
      mask <<= 1;
 40801ac:	e0bffc17 	ldw	r2,-16(fp)
 40801b0:	1085883a 	add	r2,r2,r2
 40801b4:	e0bffc15 	stw	r2,-16(fp)
      i++;
 40801b8:	e0bffd17 	ldw	r2,-12(fp)
 40801bc:	10800044 	addi	r2,r2,1
 40801c0:	e0bffd15 	stw	r2,-12(fp)

    } while (1);
 40801c4:	003fe106 	br	408014c <__alt_mem_dma_read_memory+0xfff7f14c>

    active = alt_irq_pending ();
 40801c8:	e0bffb15 	stw	r2,-20(fp)
    
  } while (active);
 40801cc:	e0bffb17 	ldw	r2,-20(fp)
 40801d0:	103fdb1e 	bne	r2,zero,4080140 <__alt_mem_dma_read_memory+0xfff7f140>

  /*
   * Notify the operating system that interrupt processing is complete.
   */ 

  ALT_OS_INT_EXIT();
 40801d4:	0001883a 	nop
}
 40801d8:	0001883a 	nop
 40801dc:	e037883a 	mov	sp,fp
 40801e0:	dfc00117 	ldw	ra,4(sp)
 40801e4:	df000017 	ldw	fp,0(sp)
 40801e8:	dec00204 	addi	sp,sp,8
 40801ec:	f800283a 	ret

040801f0 <alt_instruction_exception_entry>:
 * that handler if it has been registered. Absent a handler, it will
 * break break or hang as discussed below.
 */
int 
alt_instruction_exception_entry (alt_u32 exception_pc)
{
 40801f0:	defffb04 	addi	sp,sp,-20
 40801f4:	dfc00415 	stw	ra,16(sp)
 40801f8:	df000315 	stw	fp,12(sp)
 40801fc:	df000304 	addi	fp,sp,12
 4080200:	e13fff15 	stw	r4,-4(fp)
 * NIOS2_EXCEPTION_CAUSE_NOT_PRESENT. Your handling routine should
 * check the validity of the cause argument before proceeding.
 */
#ifdef NIOS2_HAS_EXTRA_EXCEPTION_INFO
  /* Get exception cause & "badaddr" */
  NIOS2_READ_EXCEPTION(cause);
 4080204:	000531fa 	rdctl	r2,exception
 4080208:	e0bffd15 	stw	r2,-12(fp)
  cause = ( (cause & NIOS2_EXCEPTION_REG_CAUSE_MASK) >>
 408020c:	e0bffd17 	ldw	r2,-12(fp)
 4080210:	10801f0c 	andi	r2,r2,124
 4080214:	1004d0ba 	srli	r2,r2,2
 4080218:	e0bffd15 	stw	r2,-12(fp)
              NIOS2_EXCEPTION_REG_CAUSE_OFST );

  NIOS2_READ_BADADDR(badaddr);
 408021c:	0005333a 	rdctl	r2,badaddr
 4080220:	e0bffe15 	stw	r2,-8(fp)
#else
  cause = NIOS2_EXCEPTION_CAUSE_NOT_PRESENT;
  badaddr = 0;
#endif /* NIOS2_HAS_EXTRA_EXCEPTION_INFO */

  if(alt_instruction_exception_handler) {
 4080224:	d0a03617 	ldw	r2,-32552(gp)
 4080228:	10000726 	beq	r2,zero,4080248 <alt_instruction_exception_entry+0x58>
     * Call handler. Its return value indicates whether the exception-causing
     * instruction should be re-issued. The code that called us,
     * alt_eceptions_entry.S, will look at this value and adjust the ea
     * register as necessary
     */
    return alt_instruction_exception_handler(cause, exception_pc, badaddr);
 408022c:	d0a03617 	ldw	r2,-32552(gp)
 4080230:	e0fffd17 	ldw	r3,-12(fp)
 4080234:	e1bffe17 	ldw	r6,-8(fp)
 4080238:	e17fff17 	ldw	r5,-4(fp)
 408023c:	1809883a 	mov	r4,r3
 4080240:	103ee83a 	callr	r2
 4080244:	00000206 	br	4080250 <alt_instruction_exception_entry+0x60>
   *    (a peripheral which negates its interrupt output before its
   *    interrupt handler has been executed will cause spurious interrupts)
   */
  else {
#ifdef NIOS2_HAS_DEBUG_STUB
    NIOS2_BREAK();
 4080248:	003da03a 	break	0
      ;
#endif /* NIOS2_HAS_DEBUG_STUB */
  }

  /* We should not get here. Remove compiler warning. */
  return NIOS2_EXCEPTION_RETURN_REISSUE_INST;
 408024c:	0005883a 	mov	r2,zero
}
 4080250:	e037883a 	mov	sp,fp
 4080254:	dfc00117 	ldw	ra,4(sp)
 4080258:	df000017 	ldw	fp,0(sp)
 408025c:	dec00204 	addi	sp,sp,8
 4080260:	f800283a 	ret

Disassembly of section .text:

04080264 <_start>:

    /* Assume the data cache size is always a power of two. */
#if NIOS2_DCACHE_SIZE > 0x8000
    movhi r2, %hi(NIOS2_DCACHE_SIZE)
#else
    movui r2, NIOS2_DCACHE_SIZE
 4080264:	00820014 	movui	r2,2048
#endif

0:
    initd 0(r2)
 4080268:	10000033 	initd	0(r2)
#ifdef NIOS2_ECC_PRESENT
    addi r2, r2, -4
#else
    addi r2, r2, -NIOS2_DCACHE_LINE_SIZE
 408026c:	10bff804 	addi	r2,r2,-32
#endif
    bgt r2, zero, 0b
 4080270:	00bffd16 	blt	zero,r2,4080268 <__alt_mem_dma_read_memory+0xfff7f268>

    /*
     * Now that the caches are initialized, set up the stack pointer and global pointer.
     * The values provided by the linker are assumed to be correctly aligned.
     */
    movhi sp, %hi(__alt_stack_pointer)
 4080274:	06c10034 	movhi	sp,1024
    ori sp, sp, %lo(__alt_stack_pointer)
 4080278:	dec00014 	ori	sp,sp,0
    movhi gp, %hi(_gp)
 408027c:	06800034 	movhi	gp,0
    ori gp, gp, %lo(_gp)
 4080280:	d6a8e614 	ori	gp,gp,41880
 */
#ifndef ALT_SIM_OPTIMIZE
    /* Log that the BSS is about to be cleared. */
    ALT_LOG_PUTS(alt_log_msg_bss)

    movhi r2, %hi(__bss_start)
 4080284:	00800034 	movhi	r2,0
    ori r2, r2, %lo(__bss_start)
 4080288:	10890e14 	ori	r2,r2,9272

    movhi r3, %hi(__bss_end)
 408028c:	00c00034 	movhi	r3,0
    ori r3, r3, %lo(__bss_end)
 4080290:	18c96714 	ori	r3,r3,9628

    beq r2, r3, 1f
 4080294:	10c00326 	beq	r2,r3,40802a4 <_start+0x40>

0:
    stw zero, (r2)
 4080298:	10000015 	stw	zero,0(r2)
    addi r2, r2, 4
 408029c:	10800104 	addi	r2,r2,4
    bltu r2, r3, 0b
 40802a0:	10fffd36 	bltu	r2,r3,4080298 <__alt_mem_dma_read_memory+0xfff7f298>
     * section aren't defined until alt_load() has been called).
     */
    mov   et, zero
#endif

    call alt_load
 40802a4:	4098dd40 	call	4098dd4 <alt_load>

    /* Log that alt_main is about to be called. */
    ALT_LOG_PUTS(alt_log_msg_alt_main)

    /* Call the C entry point. It should never return. */
    call alt_main
 40802a8:	4098f680 	call	4098f68 <alt_main>

040802ac <alt_after_alt_main>:

    /* Wait in infinite loop in case alt_main does return. */
alt_after_alt_main:
    br alt_after_alt_main
 40802ac:	003fff06 	br	40802ac <__alt_mem_dma_read_memory+0xfff7f2ac>

040802b0 <get_pixel>:
#define PE_SIZE_Y 3
#define Collect_Count 4

float get_pixel(int height, int width, int channels,
                        int row, int col, int channel, int pad)
{
 40802b0:	defffb04 	addi	sp,sp,-20
 40802b4:	df000415 	stw	fp,16(sp)
 40802b8:	df000404 	addi	fp,sp,16
 40802bc:	e13ffc15 	stw	r4,-16(fp)
 40802c0:	e17ffd15 	stw	r5,-12(fp)
 40802c4:	e1bffe15 	stw	r6,-8(fp)
 40802c8:	e1ffff15 	stw	r7,-4(fp)
    row -= pad;
 40802cc:	e0ffff17 	ldw	r3,-4(fp)
 40802d0:	e0800317 	ldw	r2,12(fp)
 40802d4:	1885c83a 	sub	r2,r3,r2
 40802d8:	e0bfff15 	stw	r2,-4(fp)
    col -= pad;
 40802dc:	e0c00117 	ldw	r3,4(fp)
 40802e0:	e0800317 	ldw	r2,12(fp)
 40802e4:	1885c83a 	sub	r2,r3,r2
 40802e8:	e0800115 	stw	r2,4(fp)

    if (row < 0 || col < 0 ||
 40802ec:	e0bfff17 	ldw	r2,-4(fp)
 40802f0:	10000816 	blt	r2,zero,4080314 <get_pixel+0x64>
 40802f4:	e0800117 	ldw	r2,4(fp)
 40802f8:	10000616 	blt	r2,zero,4080314 <get_pixel+0x64>
 40802fc:	e0ffff17 	ldw	r3,-4(fp)
 4080300:	e0bffc17 	ldw	r2,-16(fp)
 4080304:	1880030e 	bge	r3,r2,4080314 <get_pixel+0x64>
        row >= height || col >= width) return 0;
 4080308:	e0c00117 	ldw	r3,4(fp)
 408030c:	e0bffd17 	ldw	r2,-12(fp)
 4080310:	18800216 	blt	r3,r2,408031c <get_pixel+0x6c>
 4080314:	0005883a 	mov	r2,zero
 4080318:	00000f06 	br	4080358 <get_pixel+0xa8>
    number.IEEE_float = IORD(UNIPHY_DDR3_BASE, IMAGE_DATA_BASE_ADDRESS + col + width*(row + height*channel));
 408031c:	e0800117 	ldw	r2,4(fp)
 4080320:	10c9c404 	addi	r3,r2,10000
 4080324:	e13ffc17 	ldw	r4,-16(fp)
 4080328:	e0800217 	ldw	r2,8(fp)
 408032c:	2089383a 	mul	r4,r4,r2
 4080330:	e0bfff17 	ldw	r2,-4(fp)
 4080334:	2089883a 	add	r4,r4,r2
 4080338:	e0bffd17 	ldw	r2,-12(fp)
 408033c:	2085383a 	mul	r2,r4,r2
 4080340:	1885883a 	add	r2,r3,r2
 4080344:	1085883a 	add	r2,r2,r2
 4080348:	1085883a 	add	r2,r2,r2
 408034c:	10800037 	ldwio	r2,0(r2)
 4080350:	d0a02815 	stw	r2,-32608(gp)
    return number.float_num;
 4080354:	d0a02817 	ldw	r2,-32608(gp)
 4080358:	1007883a 	mov	r3,r2
}
 408035c:	1805883a 	mov	r2,r3
 4080360:	e037883a 	mov	sp,fp
 4080364:	df000017 	ldw	fp,0(sp)
 4080368:	dec00104 	addi	sp,sp,4
 408036c:	f800283a 	ret

04080370 <im2col>:

void im2col(int channels,  int height,  int width,
     int ksize,  int stride, int pad)
{
 4080370:	deffeb04 	addi	sp,sp,-84
 4080374:	dfc01415 	stw	ra,80(sp)
 4080378:	df001315 	stw	fp,76(sp)
 408037c:	df001304 	addi	fp,sp,76
 4080380:	e13ffc15 	stw	r4,-16(fp)
 4080384:	e17ffd15 	stw	r5,-12(fp)
 4080388:	e1bffe15 	stw	r6,-8(fp)
 408038c:	e1ffff15 	stw	r7,-4(fp)
    int c,h,w;
    int height_col = (height + 2*pad - ksize) / stride + 1;
 4080390:	e0800317 	ldw	r2,12(fp)
 4080394:	1085883a 	add	r2,r2,r2
 4080398:	1007883a 	mov	r3,r2
 408039c:	e0bffd17 	ldw	r2,-12(fp)
 40803a0:	1887883a 	add	r3,r3,r2
 40803a4:	e0bfff17 	ldw	r2,-4(fp)
 40803a8:	1885c83a 	sub	r2,r3,r2
 40803ac:	e1400217 	ldw	r5,8(fp)
 40803b0:	1009883a 	mov	r4,r2
 40803b4:	40823240 	call	4082324 <__divsi3>
 40803b8:	10800044 	addi	r2,r2,1
 40803bc:	e0bff315 	stw	r2,-52(fp)
    int width_col = (width + 2*pad - ksize) / stride + 1;
 40803c0:	e0800317 	ldw	r2,12(fp)
 40803c4:	1085883a 	add	r2,r2,r2
 40803c8:	1007883a 	mov	r3,r2
 40803cc:	e0bffe17 	ldw	r2,-8(fp)
 40803d0:	1887883a 	add	r3,r3,r2
 40803d4:	e0bfff17 	ldw	r2,-4(fp)
 40803d8:	1885c83a 	sub	r2,r3,r2
 40803dc:	e1400217 	ldw	r5,8(fp)
 40803e0:	1009883a 	mov	r4,r2
 40803e4:	40823240 	call	4082324 <__divsi3>
 40803e8:	10800044 	addi	r2,r2,1
 40803ec:	e0bff415 	stw	r2,-48(fp)

    int channels_col = channels * ksize * ksize;
 40803f0:	e0fffc17 	ldw	r3,-16(fp)
 40803f4:	e0bfff17 	ldw	r2,-4(fp)
 40803f8:	1887383a 	mul	r3,r3,r2
 40803fc:	e0bfff17 	ldw	r2,-4(fp)
 4080400:	1885383a 	mul	r2,r3,r2
 4080404:	e0bff515 	stw	r2,-44(fp)
    for (c = 0; c < channels_col; ++c) {
 4080408:	e03ff015 	stw	zero,-64(fp)
 408040c:	00005106 	br	4080554 <im2col+0x1e4>
        int w_offset = c % ksize;
 4080410:	e0bff017 	ldw	r2,-64(fp)
 4080414:	e17fff17 	ldw	r5,-4(fp)
 4080418:	1009883a 	mov	r4,r2
 408041c:	40823a80 	call	40823a8 <__modsi3>
 4080420:	e0bff615 	stw	r2,-40(fp)
        int h_offset = (c / ksize) % ksize;
 4080424:	e17fff17 	ldw	r5,-4(fp)
 4080428:	e13ff017 	ldw	r4,-64(fp)
 408042c:	40823240 	call	4082324 <__divsi3>
 4080430:	e17fff17 	ldw	r5,-4(fp)
 4080434:	1009883a 	mov	r4,r2
 4080438:	40823a80 	call	40823a8 <__modsi3>
 408043c:	e0bff715 	stw	r2,-36(fp)
        int c_im = c / ksize / ksize;
 4080440:	e17fff17 	ldw	r5,-4(fp)
 4080444:	e13ff017 	ldw	r4,-64(fp)
 4080448:	40823240 	call	4082324 <__divsi3>
 408044c:	e17fff17 	ldw	r5,-4(fp)
 4080450:	1009883a 	mov	r4,r2
 4080454:	40823240 	call	4082324 <__divsi3>
 4080458:	e0bff815 	stw	r2,-32(fp)
        for (h = 0; h < height_col; ++h) {
 408045c:	e03ff115 	stw	zero,-60(fp)
 4080460:	00003606 	br	408053c <im2col+0x1cc>
            for (w = 0; w < width_col; ++w) {
 4080464:	e03ff215 	stw	zero,-56(fp)
 4080468:	00002e06 	br	4080524 <im2col+0x1b4>
                int im_row = h_offset + h * stride;
 408046c:	e0fff117 	ldw	r3,-60(fp)
 4080470:	e0800217 	ldw	r2,8(fp)
 4080474:	1887383a 	mul	r3,r3,r2
 4080478:	e0bff717 	ldw	r2,-36(fp)
 408047c:	1885883a 	add	r2,r3,r2
 4080480:	e0bff915 	stw	r2,-28(fp)
                int im_col = w_offset + w * stride;
 4080484:	e0fff217 	ldw	r3,-56(fp)
 4080488:	e0800217 	ldw	r2,8(fp)
 408048c:	1887383a 	mul	r3,r3,r2
 4080490:	e0bff617 	ldw	r2,-40(fp)
 4080494:	1885883a 	add	r2,r3,r2
 4080498:	e0bffa15 	stw	r2,-24(fp)
                int col_index = (c * height_col + h) * width_col + w;
 408049c:	e0fff017 	ldw	r3,-64(fp)
 40804a0:	e0bff317 	ldw	r2,-52(fp)
 40804a4:	1887383a 	mul	r3,r3,r2
 40804a8:	e0bff117 	ldw	r2,-60(fp)
 40804ac:	1887883a 	add	r3,r3,r2
 40804b0:	e0bff417 	ldw	r2,-48(fp)
 40804b4:	1887383a 	mul	r3,r3,r2
 40804b8:	e0bff217 	ldw	r2,-56(fp)
 40804bc:	1885883a 	add	r2,r3,r2
 40804c0:	e0bffb15 	stw	r2,-20(fp)
                number.float_num = get_pixel(height, width, channels,
 40804c4:	e0800317 	ldw	r2,12(fp)
 40804c8:	d8800215 	stw	r2,8(sp)
 40804cc:	e0bff817 	ldw	r2,-32(fp)
 40804d0:	d8800115 	stw	r2,4(sp)
 40804d4:	e0bffa17 	ldw	r2,-24(fp)
 40804d8:	d8800015 	stw	r2,0(sp)
 40804dc:	e1fff917 	ldw	r7,-28(fp)
 40804e0:	e1bffc17 	ldw	r6,-16(fp)
 40804e4:	e17ffe17 	ldw	r5,-8(fp)
 40804e8:	e13ffd17 	ldw	r4,-12(fp)
 40804ec:	40802b00 	call	40802b0 <get_pixel>
 40804f0:	1007883a 	mov	r3,r2
 40804f4:	d0e02815 	stw	r3,-32608(gp)
                        im_row, im_col, c_im, pad);
                IOWR(UNIPHY_DDR3_BASE, IMG2COL_DATA_BASE_ADDRESS + col_index, number.IEEE_float);
 40804f8:	e0fffb17 	ldw	r3,-20(fp)
 40804fc:	008000f4 	movhi	r2,3
 4080500:	10835004 	addi	r2,r2,3392
 4080504:	1885883a 	add	r2,r3,r2
 4080508:	1085883a 	add	r2,r2,r2
 408050c:	1085883a 	add	r2,r2,r2
 4080510:	d0e02817 	ldw	r3,-32608(gp)
 4080514:	10c00035 	stwio	r3,0(r2)
    for (c = 0; c < channels_col; ++c) {
        int w_offset = c % ksize;
        int h_offset = (c / ksize) % ksize;
        int c_im = c / ksize / ksize;
        for (h = 0; h < height_col; ++h) {
            for (w = 0; w < width_col; ++w) {
 4080518:	e0bff217 	ldw	r2,-56(fp)
 408051c:	10800044 	addi	r2,r2,1
 4080520:	e0bff215 	stw	r2,-56(fp)
 4080524:	e0fff217 	ldw	r3,-56(fp)
 4080528:	e0bff417 	ldw	r2,-48(fp)
 408052c:	18bfcf16 	blt	r3,r2,408046c <__alt_mem_dma_read_memory+0xfff7f46c>
    int channels_col = channels * ksize * ksize;
    for (c = 0; c < channels_col; ++c) {
        int w_offset = c % ksize;
        int h_offset = (c / ksize) % ksize;
        int c_im = c / ksize / ksize;
        for (h = 0; h < height_col; ++h) {
 4080530:	e0bff117 	ldw	r2,-60(fp)
 4080534:	10800044 	addi	r2,r2,1
 4080538:	e0bff115 	stw	r2,-60(fp)
 408053c:	e0fff117 	ldw	r3,-60(fp)
 4080540:	e0bff317 	ldw	r2,-52(fp)
 4080544:	18bfc716 	blt	r3,r2,4080464 <__alt_mem_dma_read_memory+0xfff7f464>
    int c,h,w;
    int height_col = (height + 2*pad - ksize) / stride + 1;
    int width_col = (width + 2*pad - ksize) / stride + 1;

    int channels_col = channels * ksize * ksize;
    for (c = 0; c < channels_col; ++c) {
 4080548:	e0bff017 	ldw	r2,-64(fp)
 408054c:	10800044 	addi	r2,r2,1
 4080550:	e0bff015 	stw	r2,-64(fp)
 4080554:	e0fff017 	ldw	r3,-64(fp)
 4080558:	e0bff517 	ldw	r2,-44(fp)
 408055c:	18bfac16 	blt	r3,r2,4080410 <__alt_mem_dma_read_memory+0xfff7f410>
                        im_row, im_col, c_im, pad);
                IOWR(UNIPHY_DDR3_BASE, IMG2COL_DATA_BASE_ADDRESS + col_index, number.IEEE_float);
            }
        }
    }
}
 4080560:	0001883a 	nop
 4080564:	e037883a 	mov	sp,fp
 4080568:	dfc00117 	ldw	ra,4(sp)
 408056c:	df000017 	ldw	fp,0(sp)
 4080570:	dec00204 	addi	sp,sp,8
 4080574:	f800283a 	ret

04080578 <gemm_no_tile>:

void gemm_no_tile(int M, int N, int K, int lda, int ldb, int ldc)
{
 4080578:	defff404 	addi	sp,sp,-48
 408057c:	dfc00b15 	stw	ra,44(sp)
 4080580:	df000a15 	stw	fp,40(sp)
 4080584:	df000a04 	addi	fp,sp,40
 4080588:	e13ffc15 	stw	r4,-16(fp)
 408058c:	e17ffd15 	stw	r5,-12(fp)
 4080590:	e1bffe15 	stw	r6,-8(fp)
 4080594:	e1ffff15 	stw	r7,-4(fp)
    int i, j, k;
    float data_A, data_B, data_C;

    for (i = 0; i < M; ++i) {
 4080598:	e03ff615 	stw	zero,-40(fp)
 408059c:	00005206 	br	40806e8 <gemm_no_tile+0x170>
        for (k = 0; k < K; ++k) {
 40805a0:	e03ff815 	stw	zero,-32(fp)
 40805a4:	00004a06 	br	40806d0 <gemm_no_tile+0x158>
            //register float A_PART = ALPHA * A[i * lda + k];
            number.IEEE_float = IORD(UNIPHY_DDR3_BASE, WEIGHTS_DATA_BASE_ADDRESS + i * lda + k);
 40805a8:	e0fff617 	ldw	r3,-40(fp)
 40805ac:	e0bfff17 	ldw	r2,-4(fp)
 40805b0:	1887383a 	mul	r3,r3,r2
 40805b4:	e0bff817 	ldw	r2,-32(fp)
 40805b8:	1885883a 	add	r2,r3,r2
 40805bc:	1085883a 	add	r2,r2,r2
 40805c0:	1085883a 	add	r2,r2,r2
 40805c4:	10800037 	ldwio	r2,0(r2)
 40805c8:	d0a02815 	stw	r2,-32608(gp)
            data_A = number.float_num;
 40805cc:	d0a02817 	ldw	r2,-32608(gp)
 40805d0:	e0bff915 	stw	r2,-28(fp)
            for (j = 0; j < N; ++j) {
 40805d4:	e03ff715 	stw	zero,-36(fp)
 40805d8:	00003706 	br	40806b8 <gemm_no_tile+0x140>
                //C[i*ldc + j] += A_PART*B[k*ldb + j];
            	number.IEEE_float = IORD(UNIPHY_DDR3_BASE, IMG2COL_DATA_BASE_ADDRESS + k*ldb + j);
 40805dc:	e0fff817 	ldw	r3,-32(fp)
 40805e0:	e0800217 	ldw	r2,8(fp)
 40805e4:	1887383a 	mul	r3,r3,r2
 40805e8:	008000f4 	movhi	r2,3
 40805ec:	10835004 	addi	r2,r2,3392
 40805f0:	1887883a 	add	r3,r3,r2
 40805f4:	e0bff717 	ldw	r2,-36(fp)
 40805f8:	1885883a 	add	r2,r3,r2
 40805fc:	1085883a 	add	r2,r2,r2
 4080600:	1085883a 	add	r2,r2,r2
 4080604:	10800037 	ldwio	r2,0(r2)
 4080608:	d0a02815 	stw	r2,-32608(gp)
            	data_B = number.float_num;
 408060c:	d0a02817 	ldw	r2,-32608(gp)
 4080610:	e0bffa15 	stw	r2,-24(fp)
            	number.IEEE_float = IORD(UNIPHY_DDR3_BASE, OUTPUT_DATA_BASE_ADDRESS + i*ldc + j);
 4080614:	e0fff617 	ldw	r3,-40(fp)
 4080618:	e0800317 	ldw	r2,12(fp)
 408061c:	1887383a 	mul	r3,r3,r2
 4080620:	00800274 	movhi	r2,9
 4080624:	1089f004 	addi	r2,r2,10176
 4080628:	1887883a 	add	r3,r3,r2
 408062c:	e0bff717 	ldw	r2,-36(fp)
 4080630:	1885883a 	add	r2,r3,r2
 4080634:	1085883a 	add	r2,r2,r2
 4080638:	1085883a 	add	r2,r2,r2
 408063c:	10800037 	ldwio	r2,0(r2)
 4080640:	d0a02815 	stw	r2,-32608(gp)
            	data_C = number.float_num;
 4080644:	d0a02817 	ldw	r2,-32608(gp)
 4080648:	e0bffb15 	stw	r2,-20(fp)

            	data_C += data_A * data_B;
 408064c:	e17ffa17 	ldw	r5,-24(fp)
 4080650:	e13ff917 	ldw	r4,-28(fp)
 4080654:	4082a180 	call	4082a18 <__mulsf3>
 4080658:	1007883a 	mov	r3,r2
 408065c:	1805883a 	mov	r2,r3
 4080660:	100b883a 	mov	r5,r2
 4080664:	e13ffb17 	ldw	r4,-20(fp)
 4080668:	40824d80 	call	40824d8 <__addsf3>
 408066c:	1007883a 	mov	r3,r2
 4080670:	e0fffb15 	stw	r3,-20(fp)

            	number.float_num = data_C;
 4080674:	e0bffb17 	ldw	r2,-20(fp)
 4080678:	d0a02815 	stw	r2,-32608(gp)
            	IOWR(UNIPHY_DDR3_BASE, OUTPUT_DATA_BASE_ADDRESS + i*ldc + j, number.IEEE_float);
 408067c:	e0fff617 	ldw	r3,-40(fp)
 4080680:	e0800317 	ldw	r2,12(fp)
 4080684:	1887383a 	mul	r3,r3,r2
 4080688:	00800274 	movhi	r2,9
 408068c:	1089f004 	addi	r2,r2,10176
 4080690:	1887883a 	add	r3,r3,r2
 4080694:	e0bff717 	ldw	r2,-36(fp)
 4080698:	1885883a 	add	r2,r3,r2
 408069c:	1085883a 	add	r2,r2,r2
 40806a0:	1085883a 	add	r2,r2,r2
 40806a4:	d0e02817 	ldw	r3,-32608(gp)
 40806a8:	10c00035 	stwio	r3,0(r2)
    for (i = 0; i < M; ++i) {
        for (k = 0; k < K; ++k) {
            //register float A_PART = ALPHA * A[i * lda + k];
            number.IEEE_float = IORD(UNIPHY_DDR3_BASE, WEIGHTS_DATA_BASE_ADDRESS + i * lda + k);
            data_A = number.float_num;
            for (j = 0; j < N; ++j) {
 40806ac:	e0bff717 	ldw	r2,-36(fp)
 40806b0:	10800044 	addi	r2,r2,1
 40806b4:	e0bff715 	stw	r2,-36(fp)
 40806b8:	e0fff717 	ldw	r3,-36(fp)
 40806bc:	e0bffd17 	ldw	r2,-12(fp)
 40806c0:	18bfc616 	blt	r3,r2,40805dc <__alt_mem_dma_read_memory+0xfff7f5dc>
{
    int i, j, k;
    float data_A, data_B, data_C;

    for (i = 0; i < M; ++i) {
        for (k = 0; k < K; ++k) {
 40806c4:	e0bff817 	ldw	r2,-32(fp)
 40806c8:	10800044 	addi	r2,r2,1
 40806cc:	e0bff815 	stw	r2,-32(fp)
 40806d0:	e0fff817 	ldw	r3,-32(fp)
 40806d4:	e0bffe17 	ldw	r2,-8(fp)
 40806d8:	18bfb316 	blt	r3,r2,40805a8 <__alt_mem_dma_read_memory+0xfff7f5a8>
void gemm_no_tile(int M, int N, int K, int lda, int ldb, int ldc)
{
    int i, j, k;
    float data_A, data_B, data_C;

    for (i = 0; i < M; ++i) {
 40806dc:	e0bff617 	ldw	r2,-40(fp)
 40806e0:	10800044 	addi	r2,r2,1
 40806e4:	e0bff615 	stw	r2,-40(fp)
 40806e8:	e0fff617 	ldw	r3,-40(fp)
 40806ec:	e0bffc17 	ldw	r2,-16(fp)
 40806f0:	18bfab16 	blt	r3,r2,40805a0 <__alt_mem_dma_read_memory+0xfff7f5a0>
            	number.float_num = data_C;
            	IOWR(UNIPHY_DDR3_BASE, OUTPUT_DATA_BASE_ADDRESS + i*ldc + j, number.IEEE_float);
            }
        }
    }
}
 40806f4:	0001883a 	nop
 40806f8:	e037883a 	mov	sp,fp
 40806fc:	dfc00117 	ldw	ra,4(sp)
 4080700:	df000017 	ldw	fp,0(sp)
 4080704:	dec00204 	addi	sp,sp,8
 4080708:	f800283a 	ret

0408070c <gemm_nn>:

void gemm_nn(int M, int N, int K, float ALPHA,
    float *A, int lda,
    float *B, int ldb,
    float *C, int ldc)
{
 408070c:	defff404 	addi	sp,sp,-48
 4080710:	dfc00b15 	stw	ra,44(sp)
 4080714:	df000a15 	stw	fp,40(sp)
 4080718:	dc800915 	stw	r18,36(sp)
 408071c:	dc400815 	stw	r17,32(sp)
 4080720:	dc000715 	stw	r16,28(sp)
 4080724:	df000a04 	addi	fp,sp,40
 4080728:	e13ff915 	stw	r4,-28(fp)
 408072c:	e17ffa15 	stw	r5,-24(fp)
 4080730:	e1bffb15 	stw	r6,-20(fp)
 4080734:	e1fffc15 	stw	r7,-16(fp)
    int i, j, k;
    for (i = 0; i < M; ++i) {
 4080738:	e03ff615 	stw	zero,-40(fp)
 408073c:	00004e06 	br	4080878 <gemm_nn+0x16c>
        for (k = 0; k < K; ++k) {
 4080740:	e03ff815 	stw	zero,-32(fp)
 4080744:	00004606 	br	4080860 <gemm_nn+0x154>
            register float A_PART = ALPHA * A[i * lda + k];
 4080748:	e0fff617 	ldw	r3,-40(fp)
 408074c:	e0800317 	ldw	r2,12(fp)
 4080750:	1887383a 	mul	r3,r3,r2
 4080754:	e0bff817 	ldw	r2,-32(fp)
 4080758:	1885883a 	add	r2,r3,r2
 408075c:	1085883a 	add	r2,r2,r2
 4080760:	1085883a 	add	r2,r2,r2
 4080764:	1007883a 	mov	r3,r2
 4080768:	e0800217 	ldw	r2,8(fp)
 408076c:	10c5883a 	add	r2,r2,r3
 4080770:	10c00017 	ldw	r3,0(r2)
 4080774:	e17ffc17 	ldw	r5,-16(fp)
 4080778:	1809883a 	mov	r4,r3
 408077c:	4082a180 	call	4082a18 <__mulsf3>
 4080780:	1007883a 	mov	r3,r2
 4080784:	1825883a 	mov	r18,r3
            for (j = 0; j < N; ++j) {
 4080788:	e03ff715 	stw	zero,-36(fp)
 408078c:	00002e06 	br	4080848 <gemm_nn+0x13c>
                C[i*ldc + j] += A_PART*B[k*ldb + j];
 4080790:	e0fff617 	ldw	r3,-40(fp)
 4080794:	e0800717 	ldw	r2,28(fp)
 4080798:	1887383a 	mul	r3,r3,r2
 408079c:	e0bff717 	ldw	r2,-36(fp)
 40807a0:	1885883a 	add	r2,r3,r2
 40807a4:	1085883a 	add	r2,r2,r2
 40807a8:	1085883a 	add	r2,r2,r2
 40807ac:	1007883a 	mov	r3,r2
 40807b0:	e0800617 	ldw	r2,24(fp)
 40807b4:	10e1883a 	add	r16,r2,r3
 40807b8:	e0fff617 	ldw	r3,-40(fp)
 40807bc:	e0800717 	ldw	r2,28(fp)
 40807c0:	1887383a 	mul	r3,r3,r2
 40807c4:	e0bff717 	ldw	r2,-36(fp)
 40807c8:	1885883a 	add	r2,r3,r2
 40807cc:	1085883a 	add	r2,r2,r2
 40807d0:	1085883a 	add	r2,r2,r2
 40807d4:	1007883a 	mov	r3,r2
 40807d8:	e0800617 	ldw	r2,24(fp)
 40807dc:	10c5883a 	add	r2,r2,r3
 40807e0:	14400017 	ldw	r17,0(r2)
 40807e4:	e0fff817 	ldw	r3,-32(fp)
 40807e8:	e0800517 	ldw	r2,20(fp)
 40807ec:	1887383a 	mul	r3,r3,r2
 40807f0:	e0bff717 	ldw	r2,-36(fp)
 40807f4:	1885883a 	add	r2,r3,r2
 40807f8:	1085883a 	add	r2,r2,r2
 40807fc:	1085883a 	add	r2,r2,r2
 4080800:	1007883a 	mov	r3,r2
 4080804:	e0800417 	ldw	r2,16(fp)
 4080808:	10c5883a 	add	r2,r2,r3
 408080c:	10c00017 	ldw	r3,0(r2)
 4080810:	900b883a 	mov	r5,r18
 4080814:	1809883a 	mov	r4,r3
 4080818:	4082a180 	call	4082a18 <__mulsf3>
 408081c:	1007883a 	mov	r3,r2
 4080820:	1805883a 	mov	r2,r3
 4080824:	100b883a 	mov	r5,r2
 4080828:	8809883a 	mov	r4,r17
 408082c:	40824d80 	call	40824d8 <__addsf3>
 4080830:	1007883a 	mov	r3,r2
 4080834:	1805883a 	mov	r2,r3
 4080838:	80800015 	stw	r2,0(r16)
{
    int i, j, k;
    for (i = 0; i < M; ++i) {
        for (k = 0; k < K; ++k) {
            register float A_PART = ALPHA * A[i * lda + k];
            for (j = 0; j < N; ++j) {
 408083c:	e0bff717 	ldw	r2,-36(fp)
 4080840:	10800044 	addi	r2,r2,1
 4080844:	e0bff715 	stw	r2,-36(fp)
 4080848:	e0fff717 	ldw	r3,-36(fp)
 408084c:	e0bffa17 	ldw	r2,-24(fp)
 4080850:	18bfcf16 	blt	r3,r2,4080790 <__alt_mem_dma_read_memory+0xfff7f790>
    float *B, int ldb,
    float *C, int ldc)
{
    int i, j, k;
    for (i = 0; i < M; ++i) {
        for (k = 0; k < K; ++k) {
 4080854:	e0bff817 	ldw	r2,-32(fp)
 4080858:	10800044 	addi	r2,r2,1
 408085c:	e0bff815 	stw	r2,-32(fp)
 4080860:	e0fff817 	ldw	r3,-32(fp)
 4080864:	e0bffb17 	ldw	r2,-20(fp)
 4080868:	18bfb716 	blt	r3,r2,4080748 <__alt_mem_dma_read_memory+0xfff7f748>
    float *A, int lda,
    float *B, int ldb,
    float *C, int ldc)
{
    int i, j, k;
    for (i = 0; i < M; ++i) {
 408086c:	e0bff617 	ldw	r2,-40(fp)
 4080870:	10800044 	addi	r2,r2,1
 4080874:	e0bff615 	stw	r2,-40(fp)
 4080878:	e0fff617 	ldw	r3,-40(fp)
 408087c:	e0bff917 	ldw	r2,-28(fp)
 4080880:	18bfaf16 	blt	r3,r2,4080740 <__alt_mem_dma_read_memory+0xfff7f740>
            for (j = 0; j < N; ++j) {
                C[i*ldc + j] += A_PART*B[k*ldb + j];
            }
        }
    }
}
 4080884:	0001883a 	nop
 4080888:	e6fffd04 	addi	sp,fp,-12
 408088c:	dfc00417 	ldw	ra,16(sp)
 4080890:	df000317 	ldw	fp,12(sp)
 4080894:	dc800217 	ldw	r18,8(sp)
 4080898:	dc400117 	ldw	r17,4(sp)
 408089c:	dc000017 	ldw	r16,0(sp)
 40808a0:	dec00504 	addi	sp,sp,20
 40808a4:	f800283a 	ret

040808a8 <gemm_cpu>:
void gemm_cpu(int TA, int TB, int M, int N, int K, float ALPHA,
        float *A, int lda,
        float *B, int ldb,
        float BETA,
        float *C, int ldc)
{
 40808a8:	defff004 	addi	sp,sp,-64
 40808ac:	dfc00f15 	stw	ra,60(sp)
 40808b0:	df000e15 	stw	fp,56(sp)
 40808b4:	dc000d15 	stw	r16,52(sp)
 40808b8:	df000e04 	addi	fp,sp,56
 40808bc:	e13ffb15 	stw	r4,-20(fp)
 40808c0:	e17ffc15 	stw	r5,-16(fp)
 40808c4:	e1bffd15 	stw	r6,-12(fp)
 40808c8:	e1fffe15 	stw	r7,-8(fp)
    //printf("cpu: %d %d %d %d %d %f %d %d %f %d\n",TA, TB, M, N, K, ALPHA, lda, ldb, BETA, ldc);
    if (BETA != 1){
 40808cc:	014fe034 	movhi	r5,16256
 40808d0:	e1000817 	ldw	r4,32(fp)
 40808d4:	40829a00 	call	40829a0 <__eqsf2>
 40808d8:	10002b26 	beq	r2,zero,4080988 <gemm_cpu+0xe0>
        int i, j;
        for(i = 0; i < M; ++i){
 40808dc:	e03ff815 	stw	zero,-32(fp)
 40808e0:	00002606 	br	408097c <gemm_cpu+0xd4>
            for(j = 0; j < N; ++j){
 40808e4:	e03ff915 	stw	zero,-28(fp)
 40808e8:	00001e06 	br	4080964 <gemm_cpu+0xbc>
                C[i*ldc + j] *= BETA;
 40808ec:	e0fff817 	ldw	r3,-32(fp)
 40808f0:	e0800a17 	ldw	r2,40(fp)
 40808f4:	1887383a 	mul	r3,r3,r2
 40808f8:	e0bff917 	ldw	r2,-28(fp)
 40808fc:	1885883a 	add	r2,r3,r2
 4080900:	1085883a 	add	r2,r2,r2
 4080904:	1085883a 	add	r2,r2,r2
 4080908:	1007883a 	mov	r3,r2
 408090c:	e0800917 	ldw	r2,36(fp)
 4080910:	10e1883a 	add	r16,r2,r3
 4080914:	e0fff817 	ldw	r3,-32(fp)
 4080918:	e0800a17 	ldw	r2,40(fp)
 408091c:	1887383a 	mul	r3,r3,r2
 4080920:	e0bff917 	ldw	r2,-28(fp)
 4080924:	1885883a 	add	r2,r3,r2
 4080928:	1085883a 	add	r2,r2,r2
 408092c:	1085883a 	add	r2,r2,r2
 4080930:	1007883a 	mov	r3,r2
 4080934:	e0800917 	ldw	r2,36(fp)
 4080938:	10c5883a 	add	r2,r2,r3
 408093c:	10c00017 	ldw	r3,0(r2)
 4080940:	e1400817 	ldw	r5,32(fp)
 4080944:	1809883a 	mov	r4,r3
 4080948:	4082a180 	call	4082a18 <__mulsf3>
 408094c:	1007883a 	mov	r3,r2
 4080950:	1805883a 	mov	r2,r3
 4080954:	80800015 	stw	r2,0(r16)
{
    //printf("cpu: %d %d %d %d %d %f %d %d %f %d\n",TA, TB, M, N, K, ALPHA, lda, ldb, BETA, ldc);
    if (BETA != 1){
        int i, j;
        for(i = 0; i < M; ++i){
            for(j = 0; j < N; ++j){
 4080958:	e0bff917 	ldw	r2,-28(fp)
 408095c:	10800044 	addi	r2,r2,1
 4080960:	e0bff915 	stw	r2,-28(fp)
 4080964:	e0fff917 	ldw	r3,-28(fp)
 4080968:	e0bffe17 	ldw	r2,-8(fp)
 408096c:	18bfdf16 	blt	r3,r2,40808ec <__alt_mem_dma_read_memory+0xfff7f8ec>
        float *C, int ldc)
{
    //printf("cpu: %d %d %d %d %d %f %d %d %f %d\n",TA, TB, M, N, K, ALPHA, lda, ldb, BETA, ldc);
    if (BETA != 1){
        int i, j;
        for(i = 0; i < M; ++i){
 4080970:	e0bff817 	ldw	r2,-32(fp)
 4080974:	10800044 	addi	r2,r2,1
 4080978:	e0bff815 	stw	r2,-32(fp)
 408097c:	e0fff817 	ldw	r3,-32(fp)
 4080980:	e0bffd17 	ldw	r2,-12(fp)
 4080984:	18bfd716 	blt	r3,r2,40808e4 <__alt_mem_dma_read_memory+0xfff7f8e4>
        }
    }

    int t;
    #pragma omp parallel for
    for (t = 0; t < M; ++t) {
 4080988:	e03ffa15 	stw	zero,-24(fp)
 408098c:	00002606 	br	4080a28 <gemm_cpu+0x180>
        if (!TA && !TB)
 4080990:	e0bffb17 	ldw	r2,-20(fp)
 4080994:	1000211e 	bne	r2,zero,4080a1c <gemm_cpu+0x174>
 4080998:	e0bffc17 	ldw	r2,-16(fp)
 408099c:	10001f1e 	bne	r2,zero,4080a1c <gemm_cpu+0x174>
            gemm_nn(1, N, K, ALPHA, A + t*lda, lda, B, ldb, C + t*ldc, ldc);
 40809a0:	e0fffa17 	ldw	r3,-24(fp)
 40809a4:	e0800517 	ldw	r2,20(fp)
 40809a8:	1885383a 	mul	r2,r3,r2
 40809ac:	1085883a 	add	r2,r2,r2
 40809b0:	1085883a 	add	r2,r2,r2
 40809b4:	1007883a 	mov	r3,r2
 40809b8:	e0800417 	ldw	r2,16(fp)
 40809bc:	10c7883a 	add	r3,r2,r3
 40809c0:	e13ffa17 	ldw	r4,-24(fp)
 40809c4:	e0800a17 	ldw	r2,40(fp)
 40809c8:	2085383a 	mul	r2,r4,r2
 40809cc:	1085883a 	add	r2,r2,r2
 40809d0:	1085883a 	add	r2,r2,r2
 40809d4:	1009883a 	mov	r4,r2
 40809d8:	e0800917 	ldw	r2,36(fp)
 40809dc:	1105883a 	add	r2,r2,r4
 40809e0:	e1000a17 	ldw	r4,40(fp)
 40809e4:	d9000515 	stw	r4,20(sp)
 40809e8:	d8800415 	stw	r2,16(sp)
 40809ec:	e0800717 	ldw	r2,28(fp)
 40809f0:	d8800315 	stw	r2,12(sp)
 40809f4:	e0800617 	ldw	r2,24(fp)
 40809f8:	d8800215 	stw	r2,8(sp)
 40809fc:	e0800517 	ldw	r2,20(fp)
 4080a00:	d8800115 	stw	r2,4(sp)
 4080a04:	d8c00015 	stw	r3,0(sp)
 4080a08:	e1c00317 	ldw	r7,12(fp)
 4080a0c:	e1800217 	ldw	r6,8(fp)
 4080a10:	e17ffe17 	ldw	r5,-8(fp)
 4080a14:	01000044 	movi	r4,1
 4080a18:	408070c0 	call	408070c <gemm_nn>
        }
    }

    int t;
    #pragma omp parallel for
    for (t = 0; t < M; ++t) {
 4080a1c:	e0bffa17 	ldw	r2,-24(fp)
 4080a20:	10800044 	addi	r2,r2,1
 4080a24:	e0bffa15 	stw	r2,-24(fp)
 4080a28:	e0fffa17 	ldw	r3,-24(fp)
 4080a2c:	e0bffd17 	ldw	r2,-12(fp)
 4080a30:	18bfd716 	blt	r3,r2,4080990 <__alt_mem_dma_read_memory+0xfff7f990>
        if (!TA && !TB)
            gemm_nn(1, N, K, ALPHA, A + t*lda, lda, B, ldb, C + t*ldc, ldc);
    }
}
 4080a34:	0001883a 	nop
 4080a38:	e6ffff04 	addi	sp,fp,-4
 4080a3c:	dfc00217 	ldw	ra,8(sp)
 4080a40:	df000117 	ldw	fp,4(sp)
 4080a44:	dc000017 	ldw	r16,0(sp)
 4080a48:	dec00304 	addi	sp,sp,12
 4080a4c:	f800283a 	ret

04080a50 <PE_Instruction_Block>:

void PE_Instruction_Block(float *PE_Weight, float *PE_Img2Col, float *PE_Output){
 4080a50:	defffc04 	addi	sp,sp,-16
 4080a54:	df000315 	stw	fp,12(sp)
 4080a58:	df000304 	addi	fp,sp,12
 4080a5c:	e13ffd15 	stw	r4,-12(fp)
 4080a60:	e17ffe15 	stw	r5,-8(fp)
 4080a64:	e1bfff15 	stw	r6,-4(fp)
	number.float_num = PE_Weight[0];
 4080a68:	e0fffd17 	ldw	r3,-12(fp)
 4080a6c:	18800017 	ldw	r2,0(r3)
 4080a70:	d0a02815 	stw	r2,-32608(gp)
	ALT_CI_PE_INSTRUCTION_0(1,number.IEEE_float);
 4080a74:	d0a02817 	ldw	r2,-32608(gp)
 4080a78:	1005c072 	custom	1,r2,r2,zero

	number.float_num = PE_Img2Col[0];
 4080a7c:	e0fffe17 	ldw	r3,-8(fp)
 4080a80:	18800017 	ldw	r2,0(r3)
 4080a84:	d0a02815 	stw	r2,-32608(gp)
	ALT_CI_PE_INSTRUCTION_0(2,number.IEEE_float);
 4080a88:	d0a02817 	ldw	r2,-32608(gp)
 4080a8c:	1005c0b2 	custom	2,r2,r2,zero

	number.float_num = PE_Output[0];
 4080a90:	e0ffff17 	ldw	r3,-4(fp)
 4080a94:	18800017 	ldw	r2,0(r3)
 4080a98:	d0a02815 	stw	r2,-32608(gp)
	ALT_CI_PE_INSTRUCTION_0(3,number.IEEE_float);
 4080a9c:	d0a02817 	ldw	r2,-32608(gp)
 4080aa0:	1005c0f2 	custom	3,r2,r2,zero

	number.float_num = PE_Weight[1];
 4080aa4:	e0fffd17 	ldw	r3,-12(fp)
 4080aa8:	18800117 	ldw	r2,4(r3)
 4080aac:	d0a02815 	stw	r2,-32608(gp)
	ALT_CI_PE_INSTRUCTION_0(1,number.IEEE_float);
 4080ab0:	d0a02817 	ldw	r2,-32608(gp)
 4080ab4:	1005c072 	custom	1,r2,r2,zero

	number.float_num = PE_Img2Col[1];
 4080ab8:	e0fffe17 	ldw	r3,-8(fp)
 4080abc:	18800117 	ldw	r2,4(r3)
 4080ac0:	d0a02815 	stw	r2,-32608(gp)
	ALT_CI_PE_INSTRUCTION_0(2,number.IEEE_float);
 4080ac4:	d0a02817 	ldw	r2,-32608(gp)
 4080ac8:	1005c0b2 	custom	2,r2,r2,zero

	number.float_num = PE_Output[1];
 4080acc:	e0ffff17 	ldw	r3,-4(fp)
 4080ad0:	18800117 	ldw	r2,4(r3)
 4080ad4:	d0a02815 	stw	r2,-32608(gp)
	ALT_CI_PE_INSTRUCTION_0(3,number.IEEE_float);
 4080ad8:	d0a02817 	ldw	r2,-32608(gp)
 4080adc:	1005c0f2 	custom	3,r2,r2,zero

	number.float_num = PE_Weight[2];
 4080ae0:	e0fffd17 	ldw	r3,-12(fp)
 4080ae4:	18800217 	ldw	r2,8(r3)
 4080ae8:	d0a02815 	stw	r2,-32608(gp)
	ALT_CI_PE_INSTRUCTION_0(1,number.IEEE_float);
 4080aec:	d0a02817 	ldw	r2,-32608(gp)
 4080af0:	1005c072 	custom	1,r2,r2,zero

	number.float_num = PE_Img2Col[2];
 4080af4:	e0fffe17 	ldw	r3,-8(fp)
 4080af8:	18800217 	ldw	r2,8(r3)
 4080afc:	d0a02815 	stw	r2,-32608(gp)
	ALT_CI_PE_INSTRUCTION_0(2,number.IEEE_float);
 4080b00:	d0a02817 	ldw	r2,-32608(gp)
 4080b04:	1005c0b2 	custom	2,r2,r2,zero

	number.float_num = PE_Output[2];
 4080b08:	e0ffff17 	ldw	r3,-4(fp)
 4080b0c:	18800217 	ldw	r2,8(r3)
 4080b10:	d0a02815 	stw	r2,-32608(gp)
	ALT_CI_PE_INSTRUCTION_0(3,number.IEEE_float);
 4080b14:	d0a02817 	ldw	r2,-32608(gp)
 4080b18:	1005c0f2 	custom	3,r2,r2,zero

	number.float_num = PE_Img2Col[3];
 4080b1c:	e0fffe17 	ldw	r3,-8(fp)
 4080b20:	18800317 	ldw	r2,12(r3)
 4080b24:	d0a02815 	stw	r2,-32608(gp)
	ALT_CI_PE_INSTRUCTION_0(2,number.IEEE_float);
 4080b28:	d0a02817 	ldw	r2,-32608(gp)
 4080b2c:	1005c0b2 	custom	2,r2,r2,zero

	number.float_num = PE_Output[3];
 4080b30:	e0ffff17 	ldw	r3,-4(fp)
 4080b34:	18800317 	ldw	r2,12(r3)
 4080b38:	d0a02815 	stw	r2,-32608(gp)
	ALT_CI_PE_INSTRUCTION_0(3,number.IEEE_float);
 4080b3c:	d0a02817 	ldw	r2,-32608(gp)
 4080b40:	1005c0f2 	custom	3,r2,r2,zero

	number.float_num = PE_Img2Col[4];
 4080b44:	e0fffe17 	ldw	r3,-8(fp)
 4080b48:	18800417 	ldw	r2,16(r3)
 4080b4c:	d0a02815 	stw	r2,-32608(gp)
	ALT_CI_PE_INSTRUCTION_0(2,number.IEEE_float);
 4080b50:	d0a02817 	ldw	r2,-32608(gp)
 4080b54:	1005c0b2 	custom	2,r2,r2,zero

	number.float_num = PE_Img2Col[5];
 4080b58:	e0fffe17 	ldw	r3,-8(fp)
 4080b5c:	18800517 	ldw	r2,20(r3)
 4080b60:	d0a02815 	stw	r2,-32608(gp)
	ALT_CI_PE_INSTRUCTION_0(2,number.IEEE_float);
 4080b64:	d0a02817 	ldw	r2,-32608(gp)
 4080b68:	1005c0b2 	custom	2,r2,r2,zero
}
 4080b6c:	0001883a 	nop
 4080b70:	e037883a 	mov	sp,fp
 4080b74:	df000017 	ldw	fp,0(sp)
 4080b78:	dec00104 	addi	sp,sp,4
 4080b7c:	f800283a 	ret

04080b80 <PE_Instruction>:

void PE_Instruction(int M, int N, int K, float *Tile_Weight, float *Tile_Img2Col, float *Tile_Output){
 4080b80:	deffef04 	addi	sp,sp,-68
 4080b84:	dfc01015 	stw	ra,64(sp)
 4080b88:	df000f15 	stw	fp,60(sp)
 4080b8c:	dc400e15 	stw	r17,56(sp)
 4080b90:	dc000d15 	stw	r16,52(sp)
 4080b94:	df000f04 	addi	fp,sp,60
 4080b98:	e13ffa15 	stw	r4,-24(fp)
 4080b9c:	e17ffb15 	stw	r5,-20(fp)
 4080ba0:	e1bffc15 	stw	r6,-16(fp)
 4080ba4:	e1fffd15 	stw	r7,-12(fp)

    int i, j, p;
    int index, index2;

	float *PE_Output;
	PE_Output = (float*)malloc(sizeof(float) * PE_SIZE_X);
 4080ba8:	01000404 	movi	r4,16
 4080bac:	40843b80 	call	40843b8 <malloc>
 4080bb0:	e0bff615 	stw	r2,-40(fp)

	float *PE_Weight;
	PE_Weight = (float*)malloc(sizeof(float) * PE_SIZE_Y);
 4080bb4:	01000304 	movi	r4,12
 4080bb8:	40843b80 	call	40843b8 <malloc>
 4080bbc:	e0bff715 	stw	r2,-36(fp)

	float *PE_Img2Col;
	PE_Img2Col = (float*)malloc(sizeof(float) * (PE_SIZE_X + PE_SIZE_Y - 1));
 4080bc0:	01000604 	movi	r4,24
 4080bc4:	40843b80 	call	40843b8 <malloc>
 4080bc8:	e0bff815 	stw	r2,-32(fp)

    for(i = 0; i < M; i++){
 4080bcc:	e03ff115 	stw	zero,-60(fp)
 4080bd0:	0000b006 	br	4080e94 <PE_Instruction+0x314>
        for(j = 0; j < N / PE_SIZE_X; j++){
 4080bd4:	e03ff215 	stw	zero,-56(fp)
 4080bd8:	00008006 	br	4080ddc <PE_Instruction+0x25c>
            //Fill Output PE
            for(index = 0; index < PE_SIZE_X; index++){
 4080bdc:	e03ff415 	stw	zero,-48(fp)
 4080be0:	00001906 	br	4080c48 <PE_Instruction+0xc8>
                PE_Output[index] = Tile_Output[i * N + j * PE_SIZE_X + index];
 4080be4:	e0bff417 	ldw	r2,-48(fp)
 4080be8:	1085883a 	add	r2,r2,r2
 4080bec:	1085883a 	add	r2,r2,r2
 4080bf0:	1007883a 	mov	r3,r2
 4080bf4:	e0bff617 	ldw	r2,-40(fp)
 4080bf8:	10c7883a 	add	r3,r2,r3
 4080bfc:	e13ff117 	ldw	r4,-60(fp)
 4080c00:	e0bffb17 	ldw	r2,-20(fp)
 4080c04:	2089383a 	mul	r4,r4,r2
 4080c08:	e0bff217 	ldw	r2,-56(fp)
 4080c0c:	1085883a 	add	r2,r2,r2
 4080c10:	1085883a 	add	r2,r2,r2
 4080c14:	2089883a 	add	r4,r4,r2
 4080c18:	e0bff417 	ldw	r2,-48(fp)
 4080c1c:	2085883a 	add	r2,r4,r2
 4080c20:	1085883a 	add	r2,r2,r2
 4080c24:	1085883a 	add	r2,r2,r2
 4080c28:	1009883a 	mov	r4,r2
 4080c2c:	e0800317 	ldw	r2,12(fp)
 4080c30:	1109883a 	add	r4,r2,r4
 4080c34:	20800017 	ldw	r2,0(r4)
 4080c38:	18800015 	stw	r2,0(r3)
	PE_Img2Col = (float*)malloc(sizeof(float) * (PE_SIZE_X + PE_SIZE_Y - 1));

    for(i = 0; i < M; i++){
        for(j = 0; j < N / PE_SIZE_X; j++){
            //Fill Output PE
            for(index = 0; index < PE_SIZE_X; index++){
 4080c3c:	e0bff417 	ldw	r2,-48(fp)
 4080c40:	10800044 	addi	r2,r2,1
 4080c44:	e0bff415 	stw	r2,-48(fp)
 4080c48:	e0bff417 	ldw	r2,-48(fp)
 4080c4c:	10800110 	cmplti	r2,r2,4
 4080c50:	103fe41e 	bne	r2,zero,4080be4 <__alt_mem_dma_read_memory+0xfff7fbe4>
                PE_Output[index] = Tile_Output[i * N + j * PE_SIZE_X + index];
            }
            for(p = 0; p < K / PE_SIZE_Y; p++){
 4080c54:	e03ff315 	stw	zero,-52(fp)
 4080c58:	00005606 	br	4080db4 <PE_Instruction+0x234>
                //Fill Weight PE
                for(index = 0; index < PE_SIZE_Y; index++){
 4080c5c:	e03ff415 	stw	zero,-48(fp)
 4080c60:	00001a06 	br	4080ccc <PE_Instruction+0x14c>
                    PE_Weight[index] = Tile_Weight[i * K + p * PE_SIZE_Y + index];
 4080c64:	e0bff417 	ldw	r2,-48(fp)
 4080c68:	1085883a 	add	r2,r2,r2
 4080c6c:	1085883a 	add	r2,r2,r2
 4080c70:	1007883a 	mov	r3,r2
 4080c74:	e0bff717 	ldw	r2,-36(fp)
 4080c78:	10c9883a 	add	r4,r2,r3
 4080c7c:	e0fff117 	ldw	r3,-60(fp)
 4080c80:	e0bffc17 	ldw	r2,-16(fp)
 4080c84:	188b383a 	mul	r5,r3,r2
 4080c88:	e0fff317 	ldw	r3,-52(fp)
 4080c8c:	1805883a 	mov	r2,r3
 4080c90:	1085883a 	add	r2,r2,r2
 4080c94:	10c5883a 	add	r2,r2,r3
 4080c98:	2887883a 	add	r3,r5,r2
 4080c9c:	e0bff417 	ldw	r2,-48(fp)
 4080ca0:	1885883a 	add	r2,r3,r2
 4080ca4:	1085883a 	add	r2,r2,r2
 4080ca8:	1085883a 	add	r2,r2,r2
 4080cac:	1007883a 	mov	r3,r2
 4080cb0:	e0bffd17 	ldw	r2,-12(fp)
 4080cb4:	10c7883a 	add	r3,r2,r3
 4080cb8:	18800017 	ldw	r2,0(r3)
 4080cbc:	20800015 	stw	r2,0(r4)
            for(index = 0; index < PE_SIZE_X; index++){
                PE_Output[index] = Tile_Output[i * N + j * PE_SIZE_X + index];
            }
            for(p = 0; p < K / PE_SIZE_Y; p++){
                //Fill Weight PE
                for(index = 0; index < PE_SIZE_Y; index++){
 4080cc0:	e0bff417 	ldw	r2,-48(fp)
 4080cc4:	10800044 	addi	r2,r2,1
 4080cc8:	e0bff415 	stw	r2,-48(fp)
 4080ccc:	e0bff417 	ldw	r2,-48(fp)
 4080cd0:	108000d0 	cmplti	r2,r2,3
 4080cd4:	103fe31e 	bne	r2,zero,4080c64 <__alt_mem_dma_read_memory+0xfff7fc64>
                    PE_Weight[index] = Tile_Weight[i * K + p * PE_SIZE_Y + index];
                }
                //Fill Img2Col PE
                for(index = 0; index < (PE_SIZE_X + PE_SIZE_Y - 1); index++){
 4080cd8:	e03ff415 	stw	zero,-48(fp)
 4080cdc:	00001c06 	br	4080d50 <PE_Instruction+0x1d0>
                    PE_Img2Col[index] = Tile_Img2Col[j * (PE_SIZE_X + PE_SIZE_Y - 1) * (K / PE_SIZE_Y) + p * (PE_SIZE_X + PE_SIZE_Y - 1) + index];
 4080ce0:	e0bff417 	ldw	r2,-48(fp)
 4080ce4:	1085883a 	add	r2,r2,r2
 4080ce8:	1085883a 	add	r2,r2,r2
 4080cec:	1007883a 	mov	r3,r2
 4080cf0:	e0bff817 	ldw	r2,-32(fp)
 4080cf4:	10e1883a 	add	r16,r2,r3
 4080cf8:	e0bff217 	ldw	r2,-56(fp)
 4080cfc:	144001a4 	muli	r17,r2,6
 4080d00:	e0bffc17 	ldw	r2,-16(fp)
 4080d04:	014000c4 	movi	r5,3
 4080d08:	1009883a 	mov	r4,r2
 4080d0c:	40823240 	call	4082324 <__divsi3>
 4080d10:	8887383a 	mul	r3,r17,r2
 4080d14:	e0bff317 	ldw	r2,-52(fp)
 4080d18:	108001a4 	muli	r2,r2,6
 4080d1c:	1887883a 	add	r3,r3,r2
 4080d20:	e0bff417 	ldw	r2,-48(fp)
 4080d24:	1885883a 	add	r2,r3,r2
 4080d28:	1085883a 	add	r2,r2,r2
 4080d2c:	1085883a 	add	r2,r2,r2
 4080d30:	1007883a 	mov	r3,r2
 4080d34:	e0800217 	ldw	r2,8(fp)
 4080d38:	10c7883a 	add	r3,r2,r3
 4080d3c:	18800017 	ldw	r2,0(r3)
 4080d40:	80800015 	stw	r2,0(r16)
                //Fill Weight PE
                for(index = 0; index < PE_SIZE_Y; index++){
                    PE_Weight[index] = Tile_Weight[i * K + p * PE_SIZE_Y + index];
                }
                //Fill Img2Col PE
                for(index = 0; index < (PE_SIZE_X + PE_SIZE_Y - 1); index++){
 4080d44:	e0bff417 	ldw	r2,-48(fp)
 4080d48:	10800044 	addi	r2,r2,1
 4080d4c:	e0bff415 	stw	r2,-48(fp)
 4080d50:	e0bff417 	ldw	r2,-48(fp)
 4080d54:	10800190 	cmplti	r2,r2,6
 4080d58:	103fe11e 	bne	r2,zero,4080ce0 <__alt_mem_dma_read_memory+0xfff7fce0>
                    PE_Img2Col[index] = Tile_Img2Col[j * (PE_SIZE_X + PE_SIZE_Y - 1) * (K / PE_SIZE_Y) + p * (PE_SIZE_X + PE_SIZE_Y - 1) + index];
                }

                PE_Instruction_Block(PE_Weight, PE_Img2Col, PE_Output);
 4080d5c:	e1bff617 	ldw	r6,-40(fp)
 4080d60:	e17ff817 	ldw	r5,-32(fp)
 4080d64:	e13ff717 	ldw	r4,-36(fp)
 4080d68:	4080a500 	call	4080a50 <PE_Instruction_Block>

                //Clear Output PE
                for(index = 0; index < PE_SIZE_X; index++){
 4080d6c:	e03ff415 	stw	zero,-48(fp)
 4080d70:	00000a06 	br	4080d9c <PE_Instruction+0x21c>
                    PE_Output[index] = 0.0f;
 4080d74:	e0bff417 	ldw	r2,-48(fp)
 4080d78:	1085883a 	add	r2,r2,r2
 4080d7c:	1085883a 	add	r2,r2,r2
 4080d80:	1007883a 	mov	r3,r2
 4080d84:	e0bff617 	ldw	r2,-40(fp)
 4080d88:	10c5883a 	add	r2,r2,r3
 4080d8c:	10000015 	stw	zero,0(r2)
                }

                PE_Instruction_Block(PE_Weight, PE_Img2Col, PE_Output);

                //Clear Output PE
                for(index = 0; index < PE_SIZE_X; index++){
 4080d90:	e0bff417 	ldw	r2,-48(fp)
 4080d94:	10800044 	addi	r2,r2,1
 4080d98:	e0bff415 	stw	r2,-48(fp)
 4080d9c:	e0bff417 	ldw	r2,-48(fp)
 4080da0:	10800110 	cmplti	r2,r2,4
 4080da4:	103ff31e 	bne	r2,zero,4080d74 <__alt_mem_dma_read_memory+0xfff7fd74>
        for(j = 0; j < N / PE_SIZE_X; j++){
            //Fill Output PE
            for(index = 0; index < PE_SIZE_X; index++){
                PE_Output[index] = Tile_Output[i * N + j * PE_SIZE_X + index];
            }
            for(p = 0; p < K / PE_SIZE_Y; p++){
 4080da8:	e0bff317 	ldw	r2,-52(fp)
 4080dac:	10800044 	addi	r2,r2,1
 4080db0:	e0bff315 	stw	r2,-52(fp)
 4080db4:	e0bffc17 	ldw	r2,-16(fp)
 4080db8:	014000c4 	movi	r5,3
 4080dbc:	1009883a 	mov	r4,r2
 4080dc0:	40823240 	call	4082324 <__divsi3>
 4080dc4:	1007883a 	mov	r3,r2
 4080dc8:	e0bff317 	ldw	r2,-52(fp)
 4080dcc:	10ffa316 	blt	r2,r3,4080c5c <__alt_mem_dma_read_memory+0xfff7fc5c>

	float *PE_Img2Col;
	PE_Img2Col = (float*)malloc(sizeof(float) * (PE_SIZE_X + PE_SIZE_Y - 1));

    for(i = 0; i < M; i++){
        for(j = 0; j < N / PE_SIZE_X; j++){
 4080dd0:	e0bff217 	ldw	r2,-56(fp)
 4080dd4:	10800044 	addi	r2,r2,1
 4080dd8:	e0bff215 	stw	r2,-56(fp)
 4080ddc:	e0bffb17 	ldw	r2,-20(fp)
 4080de0:	1000010e 	bge	r2,zero,4080de8 <PE_Instruction+0x268>
 4080de4:	108000c4 	addi	r2,r2,3
 4080de8:	1005d0ba 	srai	r2,r2,2
 4080dec:	1007883a 	mov	r3,r2
 4080df0:	e0bff217 	ldw	r2,-56(fp)
 4080df4:	10ff7916 	blt	r2,r3,4080bdc <__alt_mem_dma_read_memory+0xfff7fbdc>
                }
            }
            //Fill Output Tile

        }
    	for(index2 = 0; index2 < N / PE_SIZE_X; index2++){
 4080df8:	e03ff515 	stw	zero,-44(fp)
 4080dfc:	00001b06 	br	4080e6c <PE_Instruction+0x2ec>
    		for(index = 0; index < PE_SIZE_X; index++){
 4080e00:	e03ff415 	stw	zero,-48(fp)
 4080e04:	00001306 	br	4080e54 <PE_Instruction+0x2d4>
    			number.IEEE_float =  ALT_CI_PE_INSTRUCTION_0(4,number.IEEE_float);
 4080e08:	d0a02817 	ldw	r2,-32608(gp)
 4080e0c:	1005c132 	custom	4,r2,r2,zero
 4080e10:	d0a02815 	stw	r2,-32608(gp)
    			Tile_Output[index2 * PE_SIZE_X + index] = number.float_num;
 4080e14:	e0bff517 	ldw	r2,-44(fp)
 4080e18:	1085883a 	add	r2,r2,r2
 4080e1c:	1085883a 	add	r2,r2,r2
 4080e20:	1007883a 	mov	r3,r2
 4080e24:	e0bff417 	ldw	r2,-48(fp)
 4080e28:	1885883a 	add	r2,r3,r2
 4080e2c:	1085883a 	add	r2,r2,r2
 4080e30:	1085883a 	add	r2,r2,r2
 4080e34:	1007883a 	mov	r3,r2
 4080e38:	e0800317 	ldw	r2,12(fp)
 4080e3c:	10c5883a 	add	r2,r2,r3
 4080e40:	d0e02817 	ldw	r3,-32608(gp)
 4080e44:	10c00015 	stw	r3,0(r2)
            }
            //Fill Output Tile

        }
    	for(index2 = 0; index2 < N / PE_SIZE_X; index2++){
    		for(index = 0; index < PE_SIZE_X; index++){
 4080e48:	e0bff417 	ldw	r2,-48(fp)
 4080e4c:	10800044 	addi	r2,r2,1
 4080e50:	e0bff415 	stw	r2,-48(fp)
 4080e54:	e0bff417 	ldw	r2,-48(fp)
 4080e58:	10800110 	cmplti	r2,r2,4
 4080e5c:	103fea1e 	bne	r2,zero,4080e08 <__alt_mem_dma_read_memory+0xfff7fe08>
                }
            }
            //Fill Output Tile

        }
    	for(index2 = 0; index2 < N / PE_SIZE_X; index2++){
 4080e60:	e0bff517 	ldw	r2,-44(fp)
 4080e64:	10800044 	addi	r2,r2,1
 4080e68:	e0bff515 	stw	r2,-44(fp)
 4080e6c:	e0bffb17 	ldw	r2,-20(fp)
 4080e70:	1000010e 	bge	r2,zero,4080e78 <PE_Instruction+0x2f8>
 4080e74:	108000c4 	addi	r2,r2,3
 4080e78:	1005d0ba 	srai	r2,r2,2
 4080e7c:	1007883a 	mov	r3,r2
 4080e80:	e0bff517 	ldw	r2,-44(fp)
 4080e84:	10ffde16 	blt	r2,r3,4080e00 <__alt_mem_dma_read_memory+0xfff7fe00>
	PE_Weight = (float*)malloc(sizeof(float) * PE_SIZE_Y);

	float *PE_Img2Col;
	PE_Img2Col = (float*)malloc(sizeof(float) * (PE_SIZE_X + PE_SIZE_Y - 1));

    for(i = 0; i < M; i++){
 4080e88:	e0bff117 	ldw	r2,-60(fp)
 4080e8c:	10800044 	addi	r2,r2,1
 4080e90:	e0bff115 	stw	r2,-60(fp)
 4080e94:	e0fff117 	ldw	r3,-60(fp)
 4080e98:	e0bffa17 	ldw	r2,-24(fp)
 4080e9c:	18bf4d16 	blt	r3,r2,4080bd4 <__alt_mem_dma_read_memory+0xfff7fbd4>
    		}
    	}
    }

    //Deal with edge cases
    if(N % PE_SIZE_X != 0){
 4080ea0:	e0bffb17 	ldw	r2,-20(fp)
 4080ea4:	108000cc 	andi	r2,r2,3
 4080ea8:	1000bb26 	beq	r2,zero,4081198 <PE_Instruction+0x618>
        int edge_PE_SIZE_X = N % PE_SIZE_X;
 4080eac:	e0fffb17 	ldw	r3,-20(fp)
 4080eb0:	00a00034 	movhi	r2,32768
 4080eb4:	108000c4 	addi	r2,r2,3
 4080eb8:	1884703a 	and	r2,r3,r2
 4080ebc:	1000040e 	bge	r2,zero,4080ed0 <PE_Instruction+0x350>
 4080ec0:	10bfffc4 	addi	r2,r2,-1
 4080ec4:	00ffff04 	movi	r3,-4
 4080ec8:	10c4b03a 	or	r2,r2,r3
 4080ecc:	10800044 	addi	r2,r2,1
 4080ed0:	e0bff915 	stw	r2,-28(fp)
        for(i = 0; i < M; i++){
 4080ed4:	e03ff115 	stw	zero,-60(fp)
 4080ed8:	0000ac06 	br	408118c <PE_Instruction+0x60c>
            //Fill Output PE
            for(index = 0; index < edge_PE_SIZE_X; index++){
 4080edc:	e03ff415 	stw	zero,-48(fp)
 4080ee0:	00001c06 	br	4080f54 <PE_Instruction+0x3d4>
                PE_Output[index] = Tile_Output[i * N + (N / PE_SIZE_X) * PE_SIZE_X + index];
 4080ee4:	e0bff417 	ldw	r2,-48(fp)
 4080ee8:	1085883a 	add	r2,r2,r2
 4080eec:	1085883a 	add	r2,r2,r2
 4080ef0:	1007883a 	mov	r3,r2
 4080ef4:	e0bff617 	ldw	r2,-40(fp)
 4080ef8:	10c7883a 	add	r3,r2,r3
 4080efc:	e13ff117 	ldw	r4,-60(fp)
 4080f00:	e0bffb17 	ldw	r2,-20(fp)
 4080f04:	2089383a 	mul	r4,r4,r2
 4080f08:	e0bffb17 	ldw	r2,-20(fp)
 4080f0c:	1000010e 	bge	r2,zero,4080f14 <PE_Instruction+0x394>
 4080f10:	108000c4 	addi	r2,r2,3
 4080f14:	1005d0ba 	srai	r2,r2,2
 4080f18:	1085883a 	add	r2,r2,r2
 4080f1c:	1085883a 	add	r2,r2,r2
 4080f20:	2089883a 	add	r4,r4,r2
 4080f24:	e0bff417 	ldw	r2,-48(fp)
 4080f28:	2085883a 	add	r2,r4,r2
 4080f2c:	1085883a 	add	r2,r2,r2
 4080f30:	1085883a 	add	r2,r2,r2
 4080f34:	1009883a 	mov	r4,r2
 4080f38:	e0800317 	ldw	r2,12(fp)
 4080f3c:	1109883a 	add	r4,r2,r4
 4080f40:	20800017 	ldw	r2,0(r4)
 4080f44:	18800015 	stw	r2,0(r3)
    //Deal with edge cases
    if(N % PE_SIZE_X != 0){
        int edge_PE_SIZE_X = N % PE_SIZE_X;
        for(i = 0; i < M; i++){
            //Fill Output PE
            for(index = 0; index < edge_PE_SIZE_X; index++){
 4080f48:	e0bff417 	ldw	r2,-48(fp)
 4080f4c:	10800044 	addi	r2,r2,1
 4080f50:	e0bff415 	stw	r2,-48(fp)
 4080f54:	e0fff417 	ldw	r3,-48(fp)
 4080f58:	e0bff917 	ldw	r2,-28(fp)
 4080f5c:	18bfe116 	blt	r3,r2,4080ee4 <__alt_mem_dma_read_memory+0xfff7fee4>
                PE_Output[index] = Tile_Output[i * N + (N / PE_SIZE_X) * PE_SIZE_X + index];
            }

            for(p = 0; p < K / PE_SIZE_Y; p++){
 4080f60:	e03ff315 	stw	zero,-52(fp)
 4080f64:	00005a06 	br	40810d0 <PE_Instruction+0x550>
                //Fill Weight PE
                for(index = 0; index < PE_SIZE_Y; index++){
 4080f68:	e03ff415 	stw	zero,-48(fp)
 4080f6c:	00001a06 	br	4080fd8 <PE_Instruction+0x458>
                    PE_Weight[index] = Tile_Weight[i * K + p * PE_SIZE_Y + index];
 4080f70:	e0bff417 	ldw	r2,-48(fp)
 4080f74:	1085883a 	add	r2,r2,r2
 4080f78:	1085883a 	add	r2,r2,r2
 4080f7c:	1007883a 	mov	r3,r2
 4080f80:	e0bff717 	ldw	r2,-36(fp)
 4080f84:	10c9883a 	add	r4,r2,r3
 4080f88:	e0fff117 	ldw	r3,-60(fp)
 4080f8c:	e0bffc17 	ldw	r2,-16(fp)
 4080f90:	188b383a 	mul	r5,r3,r2
 4080f94:	e0fff317 	ldw	r3,-52(fp)
 4080f98:	1805883a 	mov	r2,r3
 4080f9c:	1085883a 	add	r2,r2,r2
 4080fa0:	10c5883a 	add	r2,r2,r3
 4080fa4:	2887883a 	add	r3,r5,r2
 4080fa8:	e0bff417 	ldw	r2,-48(fp)
 4080fac:	1885883a 	add	r2,r3,r2
 4080fb0:	1085883a 	add	r2,r2,r2
 4080fb4:	1085883a 	add	r2,r2,r2
 4080fb8:	1007883a 	mov	r3,r2
 4080fbc:	e0bffd17 	ldw	r2,-12(fp)
 4080fc0:	10c7883a 	add	r3,r2,r3
 4080fc4:	18800017 	ldw	r2,0(r3)
 4080fc8:	20800015 	stw	r2,0(r4)
                PE_Output[index] = Tile_Output[i * N + (N / PE_SIZE_X) * PE_SIZE_X + index];
            }

            for(p = 0; p < K / PE_SIZE_Y; p++){
                //Fill Weight PE
                for(index = 0; index < PE_SIZE_Y; index++){
 4080fcc:	e0bff417 	ldw	r2,-48(fp)
 4080fd0:	10800044 	addi	r2,r2,1
 4080fd4:	e0bff415 	stw	r2,-48(fp)
 4080fd8:	e0bff417 	ldw	r2,-48(fp)
 4080fdc:	108000d0 	cmplti	r2,r2,3
 4080fe0:	103fe31e 	bne	r2,zero,4080f70 <__alt_mem_dma_read_memory+0xfff7ff70>
                    PE_Weight[index] = Tile_Weight[i * K + p * PE_SIZE_Y + index];
                }
                //Fill Img2Col PE
                for(index = 0; index < (edge_PE_SIZE_X + PE_SIZE_Y - 1); index++){
 4080fe4:	e03ff415 	stw	zero,-48(fp)
 4080fe8:	00001f06 	br	4081068 <PE_Instruction+0x4e8>
                    PE_Img2Col[index] = Tile_Img2Col[(N / PE_SIZE_X) * (PE_SIZE_X + PE_SIZE_Y - 1) * (K / PE_SIZE_Y) + p * (PE_SIZE_X + PE_SIZE_Y - 1) + index];
 4080fec:	e0bff417 	ldw	r2,-48(fp)
 4080ff0:	1085883a 	add	r2,r2,r2
 4080ff4:	1085883a 	add	r2,r2,r2
 4080ff8:	1007883a 	mov	r3,r2
 4080ffc:	e0bff817 	ldw	r2,-32(fp)
 4081000:	10e1883a 	add	r16,r2,r3
 4081004:	e0bffb17 	ldw	r2,-20(fp)
 4081008:	1000010e 	bge	r2,zero,4081010 <PE_Instruction+0x490>
 408100c:	108000c4 	addi	r2,r2,3
 4081010:	1005d0ba 	srai	r2,r2,2
 4081014:	144001a4 	muli	r17,r2,6
 4081018:	e0bffc17 	ldw	r2,-16(fp)
 408101c:	014000c4 	movi	r5,3
 4081020:	1009883a 	mov	r4,r2
 4081024:	40823240 	call	4082324 <__divsi3>
 4081028:	8887383a 	mul	r3,r17,r2
 408102c:	e0bff317 	ldw	r2,-52(fp)
 4081030:	108001a4 	muli	r2,r2,6
 4081034:	1887883a 	add	r3,r3,r2
 4081038:	e0bff417 	ldw	r2,-48(fp)
 408103c:	1885883a 	add	r2,r3,r2
 4081040:	1085883a 	add	r2,r2,r2
 4081044:	1085883a 	add	r2,r2,r2
 4081048:	1007883a 	mov	r3,r2
 408104c:	e0800217 	ldw	r2,8(fp)
 4081050:	10c7883a 	add	r3,r2,r3
 4081054:	18800017 	ldw	r2,0(r3)
 4081058:	80800015 	stw	r2,0(r16)
                //Fill Weight PE
                for(index = 0; index < PE_SIZE_Y; index++){
                    PE_Weight[index] = Tile_Weight[i * K + p * PE_SIZE_Y + index];
                }
                //Fill Img2Col PE
                for(index = 0; index < (edge_PE_SIZE_X + PE_SIZE_Y - 1); index++){
 408105c:	e0bff417 	ldw	r2,-48(fp)
 4081060:	10800044 	addi	r2,r2,1
 4081064:	e0bff415 	stw	r2,-48(fp)
 4081068:	e0bff917 	ldw	r2,-28(fp)
 408106c:	10800084 	addi	r2,r2,2
 4081070:	e0fff417 	ldw	r3,-48(fp)
 4081074:	18bfdd16 	blt	r3,r2,4080fec <__alt_mem_dma_read_memory+0xfff7ffec>
                    PE_Img2Col[index] = Tile_Img2Col[(N / PE_SIZE_X) * (PE_SIZE_X + PE_SIZE_Y - 1) * (K / PE_SIZE_Y) + p * (PE_SIZE_X + PE_SIZE_Y - 1) + index];
                }
                PE_Instruction_Block(PE_Weight, PE_Img2Col, PE_Output);
 4081078:	e1bff617 	ldw	r6,-40(fp)
 408107c:	e17ff817 	ldw	r5,-32(fp)
 4081080:	e13ff717 	ldw	r4,-36(fp)
 4081084:	4080a500 	call	4080a50 <PE_Instruction_Block>

                //Clear Output PE
                for(index = 0; index < PE_SIZE_X; index++){
 4081088:	e03ff415 	stw	zero,-48(fp)
 408108c:	00000a06 	br	40810b8 <PE_Instruction+0x538>
                    PE_Output[index] = 0.0f;
 4081090:	e0bff417 	ldw	r2,-48(fp)
 4081094:	1085883a 	add	r2,r2,r2
 4081098:	1085883a 	add	r2,r2,r2
 408109c:	1007883a 	mov	r3,r2
 40810a0:	e0bff617 	ldw	r2,-40(fp)
 40810a4:	10c5883a 	add	r2,r2,r3
 40810a8:	10000015 	stw	zero,0(r2)
                    PE_Img2Col[index] = Tile_Img2Col[(N / PE_SIZE_X) * (PE_SIZE_X + PE_SIZE_Y - 1) * (K / PE_SIZE_Y) + p * (PE_SIZE_X + PE_SIZE_Y - 1) + index];
                }
                PE_Instruction_Block(PE_Weight, PE_Img2Col, PE_Output);

                //Clear Output PE
                for(index = 0; index < PE_SIZE_X; index++){
 40810ac:	e0bff417 	ldw	r2,-48(fp)
 40810b0:	10800044 	addi	r2,r2,1
 40810b4:	e0bff415 	stw	r2,-48(fp)
 40810b8:	e0bff417 	ldw	r2,-48(fp)
 40810bc:	10800110 	cmplti	r2,r2,4
 40810c0:	103ff31e 	bne	r2,zero,4081090 <__alt_mem_dma_read_memory+0xfff80090>
            //Fill Output PE
            for(index = 0; index < edge_PE_SIZE_X; index++){
                PE_Output[index] = Tile_Output[i * N + (N / PE_SIZE_X) * PE_SIZE_X + index];
            }

            for(p = 0; p < K / PE_SIZE_Y; p++){
 40810c4:	e0bff317 	ldw	r2,-52(fp)
 40810c8:	10800044 	addi	r2,r2,1
 40810cc:	e0bff315 	stw	r2,-52(fp)
 40810d0:	e0bffc17 	ldw	r2,-16(fp)
 40810d4:	014000c4 	movi	r5,3
 40810d8:	1009883a 	mov	r4,r2
 40810dc:	40823240 	call	4082324 <__divsi3>
 40810e0:	1007883a 	mov	r3,r2
 40810e4:	e0bff317 	ldw	r2,-52(fp)
 40810e8:	10ff9f16 	blt	r2,r3,4080f68 <__alt_mem_dma_read_memory+0xfff7ff68>
                for(index = 0; index < PE_SIZE_X; index++){
                    PE_Output[index] = 0.0f;
                }
            }
            //Fill Output Tile
    		for(index = 0; index < edge_PE_SIZE_X; index++){
 40810ec:	e03ff415 	stw	zero,-48(fp)
 40810f0:	00001306 	br	4081140 <PE_Instruction+0x5c0>
    			number.IEEE_float =  ALT_CI_PE_INSTRUCTION_0(4,number.IEEE_float);
 40810f4:	d0a02817 	ldw	r2,-32608(gp)
 40810f8:	1005c132 	custom	4,r2,r2,zero
 40810fc:	d0a02815 	stw	r2,-32608(gp)
    			Tile_Output[index2 * PE_SIZE_X + index] = number.float_num;
 4081100:	e0bff517 	ldw	r2,-44(fp)
 4081104:	1085883a 	add	r2,r2,r2
 4081108:	1085883a 	add	r2,r2,r2
 408110c:	1007883a 	mov	r3,r2
 4081110:	e0bff417 	ldw	r2,-48(fp)
 4081114:	1885883a 	add	r2,r3,r2
 4081118:	1085883a 	add	r2,r2,r2
 408111c:	1085883a 	add	r2,r2,r2
 4081120:	1007883a 	mov	r3,r2
 4081124:	e0800317 	ldw	r2,12(fp)
 4081128:	10c5883a 	add	r2,r2,r3
 408112c:	d0e02817 	ldw	r3,-32608(gp)
 4081130:	10c00015 	stw	r3,0(r2)
                for(index = 0; index < PE_SIZE_X; index++){
                    PE_Output[index] = 0.0f;
                }
            }
            //Fill Output Tile
    		for(index = 0; index < edge_PE_SIZE_X; index++){
 4081134:	e0bff417 	ldw	r2,-48(fp)
 4081138:	10800044 	addi	r2,r2,1
 408113c:	e0bff415 	stw	r2,-48(fp)
 4081140:	e0fff417 	ldw	r3,-48(fp)
 4081144:	e0bff917 	ldw	r2,-28(fp)
 4081148:	18bfea16 	blt	r3,r2,40810f4 <__alt_mem_dma_read_memory+0xfff800f4>
    			number.IEEE_float =  ALT_CI_PE_INSTRUCTION_0(4,number.IEEE_float);
    			Tile_Output[index2 * PE_SIZE_X + index] = number.float_num;
    		}
    		for(index = 0; index < PE_SIZE_X - edge_PE_SIZE_X; index++){
 408114c:	e03ff415 	stw	zero,-48(fp)
 4081150:	00000606 	br	408116c <PE_Instruction+0x5ec>
    			number.IEEE_float =  ALT_CI_PE_INSTRUCTION_0(4,number.IEEE_float);
 4081154:	d0a02817 	ldw	r2,-32608(gp)
 4081158:	1005c132 	custom	4,r2,r2,zero
 408115c:	d0a02815 	stw	r2,-32608(gp)
            //Fill Output Tile
    		for(index = 0; index < edge_PE_SIZE_X; index++){
    			number.IEEE_float =  ALT_CI_PE_INSTRUCTION_0(4,number.IEEE_float);
    			Tile_Output[index2 * PE_SIZE_X + index] = number.float_num;
    		}
    		for(index = 0; index < PE_SIZE_X - edge_PE_SIZE_X; index++){
 4081160:	e0bff417 	ldw	r2,-48(fp)
 4081164:	10800044 	addi	r2,r2,1
 4081168:	e0bff415 	stw	r2,-48(fp)
 408116c:	00c00104 	movi	r3,4
 4081170:	e0bff917 	ldw	r2,-28(fp)
 4081174:	1885c83a 	sub	r2,r3,r2
 4081178:	e0fff417 	ldw	r3,-48(fp)
 408117c:	18bff516 	blt	r3,r2,4081154 <__alt_mem_dma_read_memory+0xfff80154>
    }

    //Deal with edge cases
    if(N % PE_SIZE_X != 0){
        int edge_PE_SIZE_X = N % PE_SIZE_X;
        for(i = 0; i < M; i++){
 4081180:	e0bff117 	ldw	r2,-60(fp)
 4081184:	10800044 	addi	r2,r2,1
 4081188:	e0bff115 	stw	r2,-60(fp)
 408118c:	e0fff117 	ldw	r3,-60(fp)
 4081190:	e0bffa17 	ldw	r2,-24(fp)
 4081194:	18bf5116 	blt	r3,r2,4080edc <__alt_mem_dma_read_memory+0xfff7fedc>
    		}
    	}
    }


    free(PE_Output);
 4081198:	e13ff617 	ldw	r4,-40(fp)
 408119c:	40843cc0 	call	40843cc <free>
    free(PE_Weight);
 40811a0:	e13ff717 	ldw	r4,-36(fp)
 40811a4:	40843cc0 	call	40843cc <free>
    free(PE_Img2Col);
 40811a8:	e13ff817 	ldw	r4,-32(fp)
 40811ac:	40843cc0 	call	40843cc <free>
}
 40811b0:	0001883a 	nop
 40811b4:	e6fffe04 	addi	sp,fp,-8
 40811b8:	dfc00317 	ldw	ra,12(sp)
 40811bc:	df000217 	ldw	fp,8(sp)
 40811c0:	dc400117 	ldw	r17,4(sp)
 40811c4:	dc000017 	ldw	r16,0(sp)
 40811c8:	dec00404 	addi	sp,sp,16
 40811cc:	f800283a 	ret

040811d0 <main>:

int main(int argc, char **argv)
{
 40811d0:	deffc104 	addi	sp,sp,-252
 40811d4:	dfc03e15 	stw	ra,248(sp)
 40811d8:	df003d15 	stw	fp,244(sp)
 40811dc:	dc003c15 	stw	r16,240(sp)
 40811e0:	df003d04 	addi	fp,sp,244
 40811e4:	e13ffd15 	stw	r4,-12(fp)
 40811e8:	e17ffe15 	stw	r5,-8(fp)
	alt_u64 time_begin_GEMM_Tile,time_end_GEMM_Tile,cycles_GEMM_Tile;

	unsigned int index0, index1, index2;

	int c, h, w, size, stride, pad, num_filters;
	c = 3;
 40811ec:	008000c4 	movi	r2,3
 40811f0:	e0bfd215 	stw	r2,-184(fp)
	h = 122;
 40811f4:	00801e84 	movi	r2,122
 40811f8:	e0bfd315 	stw	r2,-180(fp)
	w = 122;
 40811fc:	00801e84 	movi	r2,122
 4081200:	e0bfd415 	stw	r2,-176(fp)
	size = 3;
 4081204:	008000c4 	movi	r2,3
 4081208:	e0bfd515 	stw	r2,-172(fp)
	stride = 1;
 408120c:	00800044 	movi	r2,1
 4081210:	e0bfd615 	stw	r2,-168(fp)
	pad = 1;
 4081214:	00800044 	movi	r2,1
 4081218:	e0bfd715 	stw	r2,-164(fp)
	num_filters = 16;
 408121c:	00800404 	movi	r2,16
 4081220:	e0bfd815 	stw	r2,-160(fp)

	int m, n, k;
	m = num_filters;
 4081224:	e0bfd817 	ldw	r2,-160(fp)
 4081228:	e0bfd915 	stw	r2,-156(fp)
	n = h * w;
 408122c:	e0ffd317 	ldw	r3,-180(fp)
 4081230:	e0bfd417 	ldw	r2,-176(fp)
 4081234:	1885383a 	mul	r2,r3,r2
 4081238:	e0bfda15 	stw	r2,-152(fp)
	k = size * size * c;
 408123c:	e0ffd517 	ldw	r3,-172(fp)
 4081240:	e0bfd517 	ldw	r2,-172(fp)
 4081244:	1887383a 	mul	r3,r3,r2
 4081248:	e0bfd217 	ldw	r2,-184(fp)
 408124c:	1885383a 	mul	r2,r3,r2
 4081250:	e0bfdb15 	stw	r2,-148(fp)

	// Read Image Data to DDR3 Memory
	FILE *fp_image = NULL;
 4081254:	e03fdc15 	stw	zero,-144(fp)
	fp_image = fopen("/mnt/host/image_data.txt", "r");
 4081258:	01400034 	movhi	r5,0
 408125c:	29400004 	addi	r5,r5,0
 4081260:	01000034 	movhi	r4,0
 4081264:	21000104 	addi	r4,r4,4
 4081268:	40836f00 	call	40836f0 <fopen>
 408126c:	e0bfdc15 	stw	r2,-144(fp)
	if(fp_image == NULL){
 4081270:	e0bfdc17 	ldw	r2,-144(fp)
 4081274:	1000051e 	bne	r2,zero,408128c <main+0xbc>
		printf("can't open file!\n");
 4081278:	01000034 	movhi	r4,0
 408127c:	21000804 	addi	r4,r4,32
 4081280:	4084ea00 	call	4084ea0 <puts>
		exit (1);
 4081284:	01000044 	movi	r4,1
 4081288:	4082e780 	call	4082e78 <exit>
	}

	for(index0 = 0; index0 < w * h * c; index0++){
 408128c:	e03fcc15 	stw	zero,-208(fp)
 4081290:	00001406 	br	40812e4 <main+0x114>
		//fscanf(fp_image, "%f\n", &number.float_num);
		number.float_num = 5.0f;
 4081294:	00902834 	movhi	r2,16544
 4081298:	d0a02815 	stw	r2,-32608(gp)
		IOWR(UNIPHY_DDR3_BASE, IMAGE_DATA_BASE_ADDRESS + index0, number.IEEE_float);
 408129c:	e0bfcc17 	ldw	r2,-208(fp)
 40812a0:	1089c404 	addi	r2,r2,10000
 40812a4:	1085883a 	add	r2,r2,r2
 40812a8:	1085883a 	add	r2,r2,r2
 40812ac:	d0e02817 	ldw	r3,-32608(gp)
 40812b0:	10c00035 	stwio	r3,0(r2)
		if(index0 % 10000 == 0){
 40812b4:	e0bfcc17 	ldw	r2,-208(fp)
 40812b8:	0149c404 	movi	r5,10000
 40812bc:	1009883a 	mov	r4,r2
 40812c0:	40824800 	call	4082480 <__umodsi3>
 40812c4:	1000041e 	bne	r2,zero,40812d8 <main+0x108>
			printf("(Image)%d read\n", index0);
 40812c8:	e17fcc17 	ldw	r5,-208(fp)
 40812cc:	01000034 	movhi	r4,0
 40812d0:	21000d04 	addi	r4,r4,52
 40812d4:	4084da40 	call	4084da4 <printf>
	if(fp_image == NULL){
		printf("can't open file!\n");
		exit (1);
	}

	for(index0 = 0; index0 < w * h * c; index0++){
 40812d8:	e0bfcc17 	ldw	r2,-208(fp)
 40812dc:	10800044 	addi	r2,r2,1
 40812e0:	e0bfcc15 	stw	r2,-208(fp)
 40812e4:	e0ffd417 	ldw	r3,-176(fp)
 40812e8:	e0bfd317 	ldw	r2,-180(fp)
 40812ec:	1887383a 	mul	r3,r3,r2
 40812f0:	e0bfd217 	ldw	r2,-184(fp)
 40812f4:	1885383a 	mul	r2,r3,r2
 40812f8:	1007883a 	mov	r3,r2
 40812fc:	e0bfcc17 	ldw	r2,-208(fp)
 4081300:	10ffe436 	bltu	r2,r3,4081294 <__alt_mem_dma_read_memory+0xfff80294>
		IOWR(UNIPHY_DDR3_BASE, IMAGE_DATA_BASE_ADDRESS + index0, number.IEEE_float);
		if(index0 % 10000 == 0){
			printf("(Image)%d read\n", index0);
		}
	}
	fclose(fp_image);
 4081304:	e13fdc17 	ldw	r4,-144(fp)
 4081308:	4082fa00 	call	4082fa0 <fclose>

	//Read Weight Data to DDR3 Memory
	FILE *fp_weights = NULL;
 408130c:	e03fdd15 	stw	zero,-140(fp)
	fp_weights = fopen("/mnt/host/weights.txt", "r");
 4081310:	01400034 	movhi	r5,0
 4081314:	29400004 	addi	r5,r5,0
 4081318:	01000034 	movhi	r4,0
 408131c:	21001104 	addi	r4,r4,68
 4081320:	40836f00 	call	40836f0 <fopen>
 4081324:	e0bfdd15 	stw	r2,-140(fp)
	if(fp_weights == NULL){
 4081328:	e0bfdd17 	ldw	r2,-140(fp)
 408132c:	1000051e 	bne	r2,zero,4081344 <main+0x174>
		printf("can't open file!\n");
 4081330:	01000034 	movhi	r4,0
 4081334:	21000804 	addi	r4,r4,32
 4081338:	4084ea00 	call	4084ea0 <puts>
		exit (1);
 408133c:	01000044 	movi	r4,1
 4081340:	4082e780 	call	4082e78 <exit>
	}
	for(index0 = 0; index0 < m * k; index0++){
 4081344:	e03fcc15 	stw	zero,-208(fp)
 4081348:	00000d06 	br	4081380 <main+0x1b0>
		fscanf(fp_weights, "%f\n", &number.float_num);
 408134c:	d1a02804 	addi	r6,gp,-32608
 4081350:	01400034 	movhi	r5,0
 4081354:	29401704 	addi	r5,r5,92
 4081358:	e13fdd17 	ldw	r4,-140(fp)
 408135c:	4083b3c0 	call	4083b3c <fscanf>
		IOWR(UNIPHY_DDR3_BASE, WEIGHTS_DATA_BASE_ADDRESS + index0, number.IEEE_float);
 4081360:	e0bfcc17 	ldw	r2,-208(fp)
 4081364:	1085883a 	add	r2,r2,r2
 4081368:	1085883a 	add	r2,r2,r2
 408136c:	d0e02817 	ldw	r3,-32608(gp)
 4081370:	10c00035 	stwio	r3,0(r2)
	fp_weights = fopen("/mnt/host/weights.txt", "r");
	if(fp_weights == NULL){
		printf("can't open file!\n");
		exit (1);
	}
	for(index0 = 0; index0 < m * k; index0++){
 4081374:	e0bfcc17 	ldw	r2,-208(fp)
 4081378:	10800044 	addi	r2,r2,1
 408137c:	e0bfcc15 	stw	r2,-208(fp)
 4081380:	e0ffd917 	ldw	r3,-156(fp)
 4081384:	e0bfdb17 	ldw	r2,-148(fp)
 4081388:	1885383a 	mul	r2,r3,r2
 408138c:	1007883a 	mov	r3,r2
 4081390:	e0bfcc17 	ldw	r2,-208(fp)
 4081394:	10ffed36 	bltu	r2,r3,408134c <__alt_mem_dma_read_memory+0xfff8034c>
		fscanf(fp_weights, "%f\n", &number.float_num);
		IOWR(UNIPHY_DDR3_BASE, WEIGHTS_DATA_BASE_ADDRESS + index0, number.IEEE_float);
	}
	fclose(fp_weights);
 4081398:	e13fdd17 	ldw	r4,-140(fp)
 408139c:	4082fa00 	call	4082fa0 <fclose>

	// Set Output Data to DDR3 Memory

	for(index0 = 0; index0 < m * n; index0++){
 40813a0:	e03fcc15 	stw	zero,-208(fp)
 40813a4:	00000c06 	br	40813d8 <main+0x208>
		number.float_num = 0.0f;
 40813a8:	d0202815 	stw	zero,-32608(gp)
		IOWR(UNIPHY_DDR3_BASE, OUTPUT_DATA_BASE_ADDRESS + index0, number.IEEE_float);
 40813ac:	e0ffcc17 	ldw	r3,-208(fp)
 40813b0:	00800274 	movhi	r2,9
 40813b4:	1089f004 	addi	r2,r2,10176
 40813b8:	1885883a 	add	r2,r3,r2
 40813bc:	1085883a 	add	r2,r2,r2
 40813c0:	1085883a 	add	r2,r2,r2
 40813c4:	d0e02817 	ldw	r3,-32608(gp)
 40813c8:	10c00035 	stwio	r3,0(r2)
	}
	fclose(fp_weights);

	// Set Output Data to DDR3 Memory

	for(index0 = 0; index0 < m * n; index0++){
 40813cc:	e0bfcc17 	ldw	r2,-208(fp)
 40813d0:	10800044 	addi	r2,r2,1
 40813d4:	e0bfcc15 	stw	r2,-208(fp)
 40813d8:	e0ffd917 	ldw	r3,-156(fp)
 40813dc:	e0bfda17 	ldw	r2,-152(fp)
 40813e0:	1885383a 	mul	r2,r3,r2
 40813e4:	1007883a 	mov	r3,r2
 40813e8:	e0bfcc17 	ldw	r2,-208(fp)
 40813ec:	10ffee36 	bltu	r2,r3,40813a8 <__alt_mem_dma_read_memory+0xfff803a8>
		number.float_num = 0.0f;
		IOWR(UNIPHY_DDR3_BASE, OUTPUT_DATA_BASE_ADDRESS + index0, number.IEEE_float);
	}


	im2col(c, h, w, size, stride, pad);
 40813f0:	e0bfd717 	ldw	r2,-164(fp)
 40813f4:	d8800115 	stw	r2,4(sp)
 40813f8:	e0bfd617 	ldw	r2,-168(fp)
 40813fc:	d8800015 	stw	r2,0(sp)
 4081400:	e1ffd517 	ldw	r7,-172(fp)
 4081404:	e1bfd417 	ldw	r6,-176(fp)
 4081408:	e17fd317 	ldw	r5,-180(fp)
 408140c:	e13fd217 	ldw	r4,-184(fp)
 4081410:	40803700 	call	4080370 <im2col>

    int i, j, p, q, r;

	unsigned int Tile_m_size = 1;
 4081414:	00800044 	movi	r2,1
 4081418:	e0bfde15 	stw	r2,-136(fp)
	unsigned int Tile_k_size = 27;
 408141c:	008006c4 	movi	r2,27
 4081420:	e0bfdf15 	stw	r2,-132(fp)
	unsigned int Tile_n_size = 14;
 4081424:	00800384 	movi	r2,14
 4081428:	e0bfe015 	stw	r2,-128(fp)

	float *Tile_Output;
	Tile_Output = (float*)malloc(sizeof(float) * Tile_m_size * Tile_n_size);
 408142c:	e0ffde17 	ldw	r3,-136(fp)
 4081430:	e0bfe017 	ldw	r2,-128(fp)
 4081434:	1885383a 	mul	r2,r3,r2
 4081438:	1085883a 	add	r2,r2,r2
 408143c:	1085883a 	add	r2,r2,r2
 4081440:	1009883a 	mov	r4,r2
 4081444:	40843b80 	call	40843b8 <malloc>
 4081448:	e0bfe115 	stw	r2,-124(fp)

	float *Tile_Weight;
	Tile_Weight = (float*)malloc(sizeof(float) * Tile_m_size * Tile_k_size);
 408144c:	e0ffde17 	ldw	r3,-136(fp)
 4081450:	e0bfdf17 	ldw	r2,-132(fp)
 4081454:	1885383a 	mul	r2,r3,r2
 4081458:	1085883a 	add	r2,r2,r2
 408145c:	1085883a 	add	r2,r2,r2
 4081460:	1009883a 	mov	r4,r2
 4081464:	40843b80 	call	40843b8 <malloc>
 4081468:	e0bfe215 	stw	r2,-120(fp)

	float *Tile_Img2Col;
	Tile_Img2Col = (float*)malloc(sizeof(float) * Tile_n_size * Tile_k_size);
 408146c:	e0ffe017 	ldw	r3,-128(fp)
 4081470:	e0bfdf17 	ldw	r2,-132(fp)
 4081474:	1885383a 	mul	r2,r3,r2
 4081478:	1085883a 	add	r2,r2,r2
 408147c:	1085883a 	add	r2,r2,r2
 4081480:	1009883a 	mov	r4,r2
 4081484:	40843b80 	call	40843b8 <malloc>
 4081488:	e0bfe315 	stw	r2,-116(fp)

	float *Tile_Img2Col_Reduced;
    Tile_Img2Col_Reduced = (float*)malloc(sizeof(float) * (PE_SIZE_X + PE_SIZE_Y - 1) * (k / Tile_k_size) * (n / Tile_n_size));
 408148c:	e0bfdb17 	ldw	r2,-148(fp)
 4081490:	e17fdf17 	ldw	r5,-132(fp)
 4081494:	1009883a 	mov	r4,r2
 4081498:	408241c0 	call	408241c <__udivsi3>
 408149c:	1021883a 	mov	r16,r2
 40814a0:	e0bfda17 	ldw	r2,-152(fp)
 40814a4:	e17fe017 	ldw	r5,-128(fp)
 40814a8:	1009883a 	mov	r4,r2
 40814ac:	408241c0 	call	408241c <__udivsi3>
 40814b0:	8085383a 	mul	r2,r16,r2
 40814b4:	10800624 	muli	r2,r2,24
 40814b8:	1009883a 	mov	r4,r2
 40814bc:	40843b80 	call	40843b8 <malloc>
 40814c0:	e0bfe415 	stw	r2,-112(fp)

    int Tile_Img2Col_Reduced_Address[6];
    int b_Address[6];

	printf ("(GEMM)Calculating...\n");
 40814c4:	01000034 	movhi	r4,0
 40814c8:	21001804 	addi	r4,r4,96
 40814cc:	4084ea00 	call	4084ea0 <puts>
	PERF_START_MEASURING(PERFORMANCE_COUNTER_0_BASE);

	cycles_GEMM = time_end_GEMM - time_begin_GEMM;
*/

	time_begin_GEMM_Tile = perf_get_total_time  ((void*)PERFORMANCE_COUNTER_0_BASE);
 40814d0:	01010434 	movhi	r4,1040
 40814d4:	210c0004 	addi	r4,r4,12288
 40814d8:	409adfc0 	call	409adfc <perf_get_total_time>
 40814dc:	e0bfe515 	stw	r2,-108(fp)
 40814e0:	e0ffe615 	stw	r3,-104(fp)
	PERF_START_MEASURING(PERFORMANCE_COUNTER_0_BASE);
 40814e4:	0007883a 	mov	r3,zero
 40814e8:	00810434 	movhi	r2,1040
 40814ec:	108c0104 	addi	r2,r2,12292
 40814f0:	10c00035 	stwio	r3,0(r2)

	for(i = 0; i < m / Tile_m_size; i++){
 40814f4:	e03fcf15 	stw	zero,-196(fp)
 40814f8:	0000f706 	br	40818d8 <main+0x708>
		for(j = 0; j < n / Tile_n_size; j++){
 40814fc:	e03fd015 	stw	zero,-192(fp)
 4081500:	0000eb06 	br	40818b0 <main+0x6e0>

			//Fill Tile_Output
			for(index1 = 0; index1 < Tile_m_size; index1++){
 4081504:	e03fcd15 	stw	zero,-204(fp)
 4081508:	00002d06 	br	40815c0 <main+0x3f0>
				for(index0 = 0; index0 < Tile_n_size; index0++){
 408150c:	e03fcc15 	stw	zero,-208(fp)
 4081510:	00002506 	br	40815a8 <main+0x3d8>
					number.IEEE_float = IORD(UNIPHY_DDR3_BASE, OUTPUT_DATA_BASE_ADDRESS + i * Tile_m_size * n + j * Tile_n_size + index1 * n + index0);
 4081514:	e0ffcf17 	ldw	r3,-196(fp)
 4081518:	e0bfde17 	ldw	r2,-136(fp)
 408151c:	1887383a 	mul	r3,r3,r2
 4081520:	e0bfda17 	ldw	r2,-152(fp)
 4081524:	1887383a 	mul	r3,r3,r2
 4081528:	e13fd017 	ldw	r4,-192(fp)
 408152c:	e0bfe017 	ldw	r2,-128(fp)
 4081530:	2085383a 	mul	r2,r4,r2
 4081534:	1887883a 	add	r3,r3,r2
 4081538:	e13fda17 	ldw	r4,-152(fp)
 408153c:	e0bfcd17 	ldw	r2,-204(fp)
 4081540:	2085383a 	mul	r2,r4,r2
 4081544:	1887883a 	add	r3,r3,r2
 4081548:	e0bfcc17 	ldw	r2,-208(fp)
 408154c:	1887883a 	add	r3,r3,r2
 4081550:	00800274 	movhi	r2,9
 4081554:	1089f004 	addi	r2,r2,10176
 4081558:	1885883a 	add	r2,r3,r2
 408155c:	1085883a 	add	r2,r2,r2
 4081560:	1085883a 	add	r2,r2,r2
 4081564:	10800037 	ldwio	r2,0(r2)
 4081568:	d0a02815 	stw	r2,-32608(gp)
					Tile_Output[index1 * Tile_n_size + index0] = number.float_num;
 408156c:	e0ffcd17 	ldw	r3,-204(fp)
 4081570:	e0bfe017 	ldw	r2,-128(fp)
 4081574:	1887383a 	mul	r3,r3,r2
 4081578:	e0bfcc17 	ldw	r2,-208(fp)
 408157c:	1885883a 	add	r2,r3,r2
 4081580:	1085883a 	add	r2,r2,r2
 4081584:	1085883a 	add	r2,r2,r2
 4081588:	1007883a 	mov	r3,r2
 408158c:	e0bfe117 	ldw	r2,-124(fp)
 4081590:	10c5883a 	add	r2,r2,r3
 4081594:	d0e02817 	ldw	r3,-32608(gp)
 4081598:	10c00015 	stw	r3,0(r2)
	for(i = 0; i < m / Tile_m_size; i++){
		for(j = 0; j < n / Tile_n_size; j++){

			//Fill Tile_Output
			for(index1 = 0; index1 < Tile_m_size; index1++){
				for(index0 = 0; index0 < Tile_n_size; index0++){
 408159c:	e0bfcc17 	ldw	r2,-208(fp)
 40815a0:	10800044 	addi	r2,r2,1
 40815a4:	e0bfcc15 	stw	r2,-208(fp)
 40815a8:	e0ffcc17 	ldw	r3,-208(fp)
 40815ac:	e0bfe017 	ldw	r2,-128(fp)
 40815b0:	18bfd836 	bltu	r3,r2,4081514 <__alt_mem_dma_read_memory+0xfff80514>

	for(i = 0; i < m / Tile_m_size; i++){
		for(j = 0; j < n / Tile_n_size; j++){

			//Fill Tile_Output
			for(index1 = 0; index1 < Tile_m_size; index1++){
 40815b4:	e0bfcd17 	ldw	r2,-204(fp)
 40815b8:	10800044 	addi	r2,r2,1
 40815bc:	e0bfcd15 	stw	r2,-204(fp)
 40815c0:	e0ffcd17 	ldw	r3,-204(fp)
 40815c4:	e0bfde17 	ldw	r2,-136(fp)
 40815c8:	18bfd036 	bltu	r3,r2,408150c <__alt_mem_dma_read_memory+0xfff8050c>
					number.IEEE_float = IORD(UNIPHY_DDR3_BASE, OUTPUT_DATA_BASE_ADDRESS + i * Tile_m_size * n + j * Tile_n_size + index1 * n + index0);
					Tile_Output[index1 * Tile_n_size + index0] = number.float_num;
				}
			}

			for(p = 0; p < k / Tile_k_size; p++){
 40815cc:	e03fd115 	stw	zero,-188(fp)
 40815d0:	00007b06 	br	40817c0 <main+0x5f0>

				//Fill Tile_Weight
				for(index1 = 0; index1 < Tile_m_size; index1++){
 40815d4:	e03fcd15 	stw	zero,-204(fp)
 40815d8:	00002a06 	br	4081684 <main+0x4b4>
					for(index0 = 0; index0 < Tile_k_size; index0++){
 40815dc:	e03fcc15 	stw	zero,-208(fp)
 40815e0:	00002206 	br	408166c <main+0x49c>
						number.IEEE_float = IORD(UNIPHY_DDR3_BASE, WEIGHTS_DATA_BASE_ADDRESS + i * Tile_m_size * k + p * Tile_k_size + index1 * k + index0);
 40815e4:	e0ffcf17 	ldw	r3,-196(fp)
 40815e8:	e0bfde17 	ldw	r2,-136(fp)
 40815ec:	1887383a 	mul	r3,r3,r2
 40815f0:	e0bfdb17 	ldw	r2,-148(fp)
 40815f4:	1887383a 	mul	r3,r3,r2
 40815f8:	e13fd117 	ldw	r4,-188(fp)
 40815fc:	e0bfdf17 	ldw	r2,-132(fp)
 4081600:	2085383a 	mul	r2,r4,r2
 4081604:	1887883a 	add	r3,r3,r2
 4081608:	e13fdb17 	ldw	r4,-148(fp)
 408160c:	e0bfcd17 	ldw	r2,-204(fp)
 4081610:	2085383a 	mul	r2,r4,r2
 4081614:	1887883a 	add	r3,r3,r2
 4081618:	e0bfcc17 	ldw	r2,-208(fp)
 408161c:	1885883a 	add	r2,r3,r2
 4081620:	1085883a 	add	r2,r2,r2
 4081624:	1085883a 	add	r2,r2,r2
 4081628:	10800037 	ldwio	r2,0(r2)
 408162c:	d0a02815 	stw	r2,-32608(gp)
						Tile_Weight[index1 * Tile_k_size + index0] = number.float_num;
 4081630:	e0ffcd17 	ldw	r3,-204(fp)
 4081634:	e0bfdf17 	ldw	r2,-132(fp)
 4081638:	1887383a 	mul	r3,r3,r2
 408163c:	e0bfcc17 	ldw	r2,-208(fp)
 4081640:	1885883a 	add	r2,r3,r2
 4081644:	1085883a 	add	r2,r2,r2
 4081648:	1085883a 	add	r2,r2,r2
 408164c:	1007883a 	mov	r3,r2
 4081650:	e0bfe217 	ldw	r2,-120(fp)
 4081654:	10c5883a 	add	r2,r2,r3
 4081658:	d0e02817 	ldw	r3,-32608(gp)
 408165c:	10c00015 	stw	r3,0(r2)

			for(p = 0; p < k / Tile_k_size; p++){

				//Fill Tile_Weight
				for(index1 = 0; index1 < Tile_m_size; index1++){
					for(index0 = 0; index0 < Tile_k_size; index0++){
 4081660:	e0bfcc17 	ldw	r2,-208(fp)
 4081664:	10800044 	addi	r2,r2,1
 4081668:	e0bfcc15 	stw	r2,-208(fp)
 408166c:	e0ffcc17 	ldw	r3,-208(fp)
 4081670:	e0bfdf17 	ldw	r2,-132(fp)
 4081674:	18bfdb36 	bltu	r3,r2,40815e4 <__alt_mem_dma_read_memory+0xfff805e4>
			}

			for(p = 0; p < k / Tile_k_size; p++){

				//Fill Tile_Weight
				for(index1 = 0; index1 < Tile_m_size; index1++){
 4081678:	e0bfcd17 	ldw	r2,-204(fp)
 408167c:	10800044 	addi	r2,r2,1
 4081680:	e0bfcd15 	stw	r2,-204(fp)
 4081684:	e0ffcd17 	ldw	r3,-204(fp)
 4081688:	e0bfde17 	ldw	r2,-136(fp)
 408168c:	18bfd336 	bltu	r3,r2,40815dc <__alt_mem_dma_read_memory+0xfff805dc>
						Tile_Weight[index1 * Tile_k_size + index0] = number.float_num;
					}
				}

				//Fill Tile_Col2Img
				for(index1 = 0; index1 < Tile_k_size; index1++){
 4081690:	e03fcd15 	stw	zero,-204(fp)
 4081694:	00002d06 	br	408174c <main+0x57c>
					for(index0 = 0; index0 < Tile_n_size; index0++){
 4081698:	e03fcc15 	stw	zero,-208(fp)
 408169c:	00002506 	br	4081734 <main+0x564>
						number.IEEE_float = IORD(UNIPHY_DDR3_BASE, IMG2COL_DATA_BASE_ADDRESS + p * Tile_k_size * n + j * Tile_n_size + index1 * n + index0);
 40816a0:	e0ffd117 	ldw	r3,-188(fp)
 40816a4:	e0bfdf17 	ldw	r2,-132(fp)
 40816a8:	1887383a 	mul	r3,r3,r2
 40816ac:	e0bfda17 	ldw	r2,-152(fp)
 40816b0:	1887383a 	mul	r3,r3,r2
 40816b4:	e13fd017 	ldw	r4,-192(fp)
 40816b8:	e0bfe017 	ldw	r2,-128(fp)
 40816bc:	2085383a 	mul	r2,r4,r2
 40816c0:	1887883a 	add	r3,r3,r2
 40816c4:	e13fda17 	ldw	r4,-152(fp)
 40816c8:	e0bfcd17 	ldw	r2,-204(fp)
 40816cc:	2085383a 	mul	r2,r4,r2
 40816d0:	1887883a 	add	r3,r3,r2
 40816d4:	e0bfcc17 	ldw	r2,-208(fp)
 40816d8:	1887883a 	add	r3,r3,r2
 40816dc:	008000f4 	movhi	r2,3
 40816e0:	10835004 	addi	r2,r2,3392
 40816e4:	1885883a 	add	r2,r3,r2
 40816e8:	1085883a 	add	r2,r2,r2
 40816ec:	1085883a 	add	r2,r2,r2
 40816f0:	10800037 	ldwio	r2,0(r2)
 40816f4:	d0a02815 	stw	r2,-32608(gp)
						Tile_Img2Col[index1 * Tile_n_size + index0] = number.float_num;
 40816f8:	e0ffcd17 	ldw	r3,-204(fp)
 40816fc:	e0bfe017 	ldw	r2,-128(fp)
 4081700:	1887383a 	mul	r3,r3,r2
 4081704:	e0bfcc17 	ldw	r2,-208(fp)
 4081708:	1885883a 	add	r2,r3,r2
 408170c:	1085883a 	add	r2,r2,r2
 4081710:	1085883a 	add	r2,r2,r2
 4081714:	1007883a 	mov	r3,r2
 4081718:	e0bfe317 	ldw	r2,-116(fp)
 408171c:	10c5883a 	add	r2,r2,r3
 4081720:	d0e02817 	ldw	r3,-32608(gp)
 4081724:	10c00015 	stw	r3,0(r2)
					}
				}

				//Fill Tile_Col2Img
				for(index1 = 0; index1 < Tile_k_size; index1++){
					for(index0 = 0; index0 < Tile_n_size; index0++){
 4081728:	e0bfcc17 	ldw	r2,-208(fp)
 408172c:	10800044 	addi	r2,r2,1
 4081730:	e0bfcc15 	stw	r2,-208(fp)
 4081734:	e0ffcc17 	ldw	r3,-208(fp)
 4081738:	e0bfe017 	ldw	r2,-128(fp)
 408173c:	18bfd836 	bltu	r3,r2,40816a0 <__alt_mem_dma_read_memory+0xfff806a0>
						Tile_Weight[index1 * Tile_k_size + index0] = number.float_num;
					}
				}

				//Fill Tile_Col2Img
				for(index1 = 0; index1 < Tile_k_size; index1++){
 4081740:	e0bfcd17 	ldw	r2,-204(fp)
 4081744:	10800044 	addi	r2,r2,1
 4081748:	e0bfcd15 	stw	r2,-204(fp)
 408174c:	e0ffcd17 	ldw	r3,-204(fp)
 4081750:	e0bfdf17 	ldw	r2,-132(fp)
 4081754:	18bfd036 	bltu	r3,r2,4081698 <__alt_mem_dma_read_memory+0xfff80698>
					for(index0 = 0; index0 < Tile_n_size; index0++){
						number.IEEE_float = IORD(UNIPHY_DDR3_BASE, IMG2COL_DATA_BASE_ADDRESS + p * Tile_k_size * n + j * Tile_n_size + index1 * n + index0);
						Tile_Img2Col[index1 * Tile_n_size + index0] = number.float_num;
					}
				}
				gemm_cpu(0,0,Tile_m_size,Tile_n_size,Tile_k_size,1,Tile_Weight,Tile_k_size,Tile_Img2Col,Tile_n_size,1,Tile_Output,Tile_n_size);
 4081758:	e1bfde17 	ldw	r6,-136(fp)
 408175c:	e1ffe017 	ldw	r7,-128(fp)
 4081760:	e0bfdf17 	ldw	r2,-132(fp)
 4081764:	e0ffdf17 	ldw	r3,-132(fp)
 4081768:	e13fe017 	ldw	r4,-128(fp)
 408176c:	e17fe017 	ldw	r5,-128(fp)
 4081770:	d9400815 	stw	r5,32(sp)
 4081774:	e17fe117 	ldw	r5,-124(fp)
 4081778:	d9400715 	stw	r5,28(sp)
 408177c:	014fe034 	movhi	r5,16256
 4081780:	d9400615 	stw	r5,24(sp)
 4081784:	d9000515 	stw	r4,20(sp)
 4081788:	e13fe317 	ldw	r4,-116(fp)
 408178c:	d9000415 	stw	r4,16(sp)
 4081790:	d8c00315 	stw	r3,12(sp)
 4081794:	e0ffe217 	ldw	r3,-120(fp)
 4081798:	d8c00215 	stw	r3,8(sp)
 408179c:	00cfe034 	movhi	r3,16256
 40817a0:	d8c00115 	stw	r3,4(sp)
 40817a4:	d8800015 	stw	r2,0(sp)
 40817a8:	000b883a 	mov	r5,zero
 40817ac:	0009883a 	mov	r4,zero
 40817b0:	40808a80 	call	40808a8 <gemm_cpu>
					number.IEEE_float = IORD(UNIPHY_DDR3_BASE, OUTPUT_DATA_BASE_ADDRESS + i * Tile_m_size * n + j * Tile_n_size + index1 * n + index0);
					Tile_Output[index1 * Tile_n_size + index0] = number.float_num;
				}
			}

			for(p = 0; p < k / Tile_k_size; p++){
 40817b4:	e0bfd117 	ldw	r2,-188(fp)
 40817b8:	10800044 	addi	r2,r2,1
 40817bc:	e0bfd115 	stw	r2,-188(fp)
 40817c0:	e0bfdb17 	ldw	r2,-148(fp)
 40817c4:	e17fdf17 	ldw	r5,-132(fp)
 40817c8:	1009883a 	mov	r4,r2
 40817cc:	408241c0 	call	408241c <__udivsi3>
 40817d0:	1007883a 	mov	r3,r2
 40817d4:	e0bfd117 	ldw	r2,-188(fp)
 40817d8:	10ff7e36 	bltu	r2,r3,40815d4 <__alt_mem_dma_read_memory+0xfff805d4>
				}
				gemm_cpu(0,0,Tile_m_size,Tile_n_size,Tile_k_size,1,Tile_Weight,Tile_k_size,Tile_Img2Col,Tile_n_size,1,Tile_Output,Tile_n_size);

			}
			//Fill Tile_Output
			for(index1 = 0; index1 < Tile_m_size; index1++){
 40817dc:	e03fcd15 	stw	zero,-204(fp)
 40817e0:	00002d06 	br	4081898 <main+0x6c8>
				for(index0 = 0; index0 < Tile_n_size; index0++){
 40817e4:	e03fcc15 	stw	zero,-208(fp)
 40817e8:	00002506 	br	4081880 <main+0x6b0>
					number.float_num = Tile_Output[index1 * Tile_n_size + index0];
 40817ec:	e0ffcd17 	ldw	r3,-204(fp)
 40817f0:	e0bfe017 	ldw	r2,-128(fp)
 40817f4:	1887383a 	mul	r3,r3,r2
 40817f8:	e0bfcc17 	ldw	r2,-208(fp)
 40817fc:	1885883a 	add	r2,r3,r2
 4081800:	1085883a 	add	r2,r2,r2
 4081804:	1085883a 	add	r2,r2,r2
 4081808:	1007883a 	mov	r3,r2
 408180c:	e0bfe117 	ldw	r2,-124(fp)
 4081810:	10c7883a 	add	r3,r2,r3
 4081814:	18800017 	ldw	r2,0(r3)
 4081818:	d0a02815 	stw	r2,-32608(gp)
					IOWR(UNIPHY_DDR3_BASE, OUTPUT_DATA_BASE_ADDRESS + i * Tile_m_size * n + j * Tile_n_size + index1 * n + index0, number.IEEE_float);
 408181c:	e0ffcf17 	ldw	r3,-196(fp)
 4081820:	e0bfde17 	ldw	r2,-136(fp)
 4081824:	1887383a 	mul	r3,r3,r2
 4081828:	e0bfda17 	ldw	r2,-152(fp)
 408182c:	1887383a 	mul	r3,r3,r2
 4081830:	e13fd017 	ldw	r4,-192(fp)
 4081834:	e0bfe017 	ldw	r2,-128(fp)
 4081838:	2085383a 	mul	r2,r4,r2
 408183c:	1887883a 	add	r3,r3,r2
 4081840:	e13fda17 	ldw	r4,-152(fp)
 4081844:	e0bfcd17 	ldw	r2,-204(fp)
 4081848:	2085383a 	mul	r2,r4,r2
 408184c:	1887883a 	add	r3,r3,r2
 4081850:	e0bfcc17 	ldw	r2,-208(fp)
 4081854:	1887883a 	add	r3,r3,r2
 4081858:	00800274 	movhi	r2,9
 408185c:	1089f004 	addi	r2,r2,10176
 4081860:	1885883a 	add	r2,r3,r2
 4081864:	1085883a 	add	r2,r2,r2
 4081868:	1085883a 	add	r2,r2,r2
 408186c:	d0e02817 	ldw	r3,-32608(gp)
 4081870:	10c00035 	stwio	r3,0(r2)
				gemm_cpu(0,0,Tile_m_size,Tile_n_size,Tile_k_size,1,Tile_Weight,Tile_k_size,Tile_Img2Col,Tile_n_size,1,Tile_Output,Tile_n_size);

			}
			//Fill Tile_Output
			for(index1 = 0; index1 < Tile_m_size; index1++){
				for(index0 = 0; index0 < Tile_n_size; index0++){
 4081874:	e0bfcc17 	ldw	r2,-208(fp)
 4081878:	10800044 	addi	r2,r2,1
 408187c:	e0bfcc15 	stw	r2,-208(fp)
 4081880:	e0ffcc17 	ldw	r3,-208(fp)
 4081884:	e0bfe017 	ldw	r2,-128(fp)
 4081888:	18bfd836 	bltu	r3,r2,40817ec <__alt_mem_dma_read_memory+0xfff807ec>
				}
				gemm_cpu(0,0,Tile_m_size,Tile_n_size,Tile_k_size,1,Tile_Weight,Tile_k_size,Tile_Img2Col,Tile_n_size,1,Tile_Output,Tile_n_size);

			}
			//Fill Tile_Output
			for(index1 = 0; index1 < Tile_m_size; index1++){
 408188c:	e0bfcd17 	ldw	r2,-204(fp)
 4081890:	10800044 	addi	r2,r2,1
 4081894:	e0bfcd15 	stw	r2,-204(fp)
 4081898:	e0ffcd17 	ldw	r3,-204(fp)
 408189c:	e0bfde17 	ldw	r2,-136(fp)
 40818a0:	18bfd036 	bltu	r3,r2,40817e4 <__alt_mem_dma_read_memory+0xfff807e4>

	time_begin_GEMM_Tile = perf_get_total_time  ((void*)PERFORMANCE_COUNTER_0_BASE);
	PERF_START_MEASURING(PERFORMANCE_COUNTER_0_BASE);

	for(i = 0; i < m / Tile_m_size; i++){
		for(j = 0; j < n / Tile_n_size; j++){
 40818a4:	e0bfd017 	ldw	r2,-192(fp)
 40818a8:	10800044 	addi	r2,r2,1
 40818ac:	e0bfd015 	stw	r2,-192(fp)
 40818b0:	e0bfda17 	ldw	r2,-152(fp)
 40818b4:	e17fe017 	ldw	r5,-128(fp)
 40818b8:	1009883a 	mov	r4,r2
 40818bc:	408241c0 	call	408241c <__udivsi3>
 40818c0:	1007883a 	mov	r3,r2
 40818c4:	e0bfd017 	ldw	r2,-192(fp)
 40818c8:	10ff0e36 	bltu	r2,r3,4081504 <__alt_mem_dma_read_memory+0xfff80504>
*/

	time_begin_GEMM_Tile = perf_get_total_time  ((void*)PERFORMANCE_COUNTER_0_BASE);
	PERF_START_MEASURING(PERFORMANCE_COUNTER_0_BASE);

	for(i = 0; i < m / Tile_m_size; i++){
 40818cc:	e0bfcf17 	ldw	r2,-196(fp)
 40818d0:	10800044 	addi	r2,r2,1
 40818d4:	e0bfcf15 	stw	r2,-196(fp)
 40818d8:	e0bfd917 	ldw	r2,-156(fp)
 40818dc:	e17fde17 	ldw	r5,-136(fp)
 40818e0:	1009883a 	mov	r4,r2
 40818e4:	408241c0 	call	408241c <__udivsi3>
 40818e8:	1007883a 	mov	r3,r2
 40818ec:	e0bfcf17 	ldw	r2,-196(fp)
 40818f0:	10ff0236 	bltu	r2,r3,40814fc <__alt_mem_dma_read_memory+0xfff804fc>
				}
			}
		}
	}

	time_end_GEMM_Tile = perf_get_total_time  ((void*)PERFORMANCE_COUNTER_0_BASE);
 40818f4:	01010434 	movhi	r4,1040
 40818f8:	210c0004 	addi	r4,r4,12288
 40818fc:	409adfc0 	call	409adfc <perf_get_total_time>
 4081900:	e0bfe715 	stw	r2,-100(fp)
 4081904:	e0ffe815 	stw	r3,-96(fp)
	PERF_START_MEASURING(PERFORMANCE_COUNTER_0_BASE);
 4081908:	0007883a 	mov	r3,zero
 408190c:	00810434 	movhi	r2,1040
 4081910:	108c0104 	addi	r2,r2,12292
 4081914:	10c00035 	stwio	r3,0(r2)
	cycles_GEMM_Tile = time_end_GEMM_Tile - time_begin_GEMM_Tile;
 4081918:	e13fe717 	ldw	r4,-100(fp)
 408191c:	e17fe817 	ldw	r5,-96(fp)
 4081920:	e1bfe517 	ldw	r6,-108(fp)
 4081924:	e1ffe617 	ldw	r7,-104(fp)
 4081928:	2185c83a 	sub	r2,r4,r6
 408192c:	2091803a 	cmpltu	r8,r4,r2
 4081930:	29c7c83a 	sub	r3,r5,r7
 4081934:	1a09c83a 	sub	r4,r3,r8
 4081938:	2007883a 	mov	r3,r4
 408193c:	e0bfe915 	stw	r2,-92(fp)
 4081940:	e0ffea15 	stw	r3,-88(fp)

	printf ("(PE)Calculating...\n");
 4081944:	01000034 	movhi	r4,0
 4081948:	21001e04 	addi	r4,r4,120
 408194c:	4084ea00 	call	4084ea0 <puts>
	time_begin_pe = perf_get_total_time  ((void*)PERFORMANCE_COUNTER_0_BASE);
 4081950:	01010434 	movhi	r4,1040
 4081954:	210c0004 	addi	r4,r4,12288
 4081958:	409adfc0 	call	409adfc <perf_get_total_time>
 408195c:	e0bfeb15 	stw	r2,-84(fp)
 4081960:	e0ffec15 	stw	r3,-80(fp)
	PERF_START_MEASURING(PERFORMANCE_COUNTER_0_BASE);
 4081964:	0007883a 	mov	r3,zero
 4081968:	00810434 	movhi	r2,1040
 408196c:	108c0104 	addi	r2,r2,12292
 4081970:	10c00035 	stwio	r3,0(r2)

	for(i = 0; i < m / Tile_m_size; i++){
 4081974:	e03fcf15 	stw	zero,-196(fp)
 4081978:	00024006 	br	408227c <main+0x10ac>
		for(j = 0; j < n / Tile_n_size; j++){
 408197c:	e03fd015 	stw	zero,-192(fp)
 4081980:	00023406 	br	4082254 <main+0x1084>
			//Fill Tile_Output
			for(index1 = 0; index1 < Tile_m_size; index1++){
 4081984:	e03fcd15 	stw	zero,-204(fp)
 4081988:	00002d06 	br	4081a40 <main+0x870>
				for(index0 = 0; index0 < Tile_n_size; index0++){
 408198c:	e03fcc15 	stw	zero,-208(fp)
 4081990:	00002506 	br	4081a28 <main+0x858>
					number.IEEE_float = IORD(UNIPHY_DDR3_BASE, OUTPUT_DATA_BASE_ADDRESS + i * Tile_m_size * n + j * Tile_n_size + index1 * n + index0);
 4081994:	e0ffcf17 	ldw	r3,-196(fp)
 4081998:	e0bfde17 	ldw	r2,-136(fp)
 408199c:	1887383a 	mul	r3,r3,r2
 40819a0:	e0bfda17 	ldw	r2,-152(fp)
 40819a4:	1887383a 	mul	r3,r3,r2
 40819a8:	e13fd017 	ldw	r4,-192(fp)
 40819ac:	e0bfe017 	ldw	r2,-128(fp)
 40819b0:	2085383a 	mul	r2,r4,r2
 40819b4:	1887883a 	add	r3,r3,r2
 40819b8:	e13fda17 	ldw	r4,-152(fp)
 40819bc:	e0bfcd17 	ldw	r2,-204(fp)
 40819c0:	2085383a 	mul	r2,r4,r2
 40819c4:	1887883a 	add	r3,r3,r2
 40819c8:	e0bfcc17 	ldw	r2,-208(fp)
 40819cc:	1887883a 	add	r3,r3,r2
 40819d0:	00800274 	movhi	r2,9
 40819d4:	1089f004 	addi	r2,r2,10176
 40819d8:	1885883a 	add	r2,r3,r2
 40819dc:	1085883a 	add	r2,r2,r2
 40819e0:	1085883a 	add	r2,r2,r2
 40819e4:	10800037 	ldwio	r2,0(r2)
 40819e8:	d0a02815 	stw	r2,-32608(gp)
					Tile_Output[index1 * Tile_n_size + index0] = number.float_num;
 40819ec:	e0ffcd17 	ldw	r3,-204(fp)
 40819f0:	e0bfe017 	ldw	r2,-128(fp)
 40819f4:	1887383a 	mul	r3,r3,r2
 40819f8:	e0bfcc17 	ldw	r2,-208(fp)
 40819fc:	1885883a 	add	r2,r3,r2
 4081a00:	1085883a 	add	r2,r2,r2
 4081a04:	1085883a 	add	r2,r2,r2
 4081a08:	1007883a 	mov	r3,r2
 4081a0c:	e0bfe117 	ldw	r2,-124(fp)
 4081a10:	10c5883a 	add	r2,r2,r3
 4081a14:	d0e02817 	ldw	r3,-32608(gp)
 4081a18:	10c00015 	stw	r3,0(r2)

	for(i = 0; i < m / Tile_m_size; i++){
		for(j = 0; j < n / Tile_n_size; j++){
			//Fill Tile_Output
			for(index1 = 0; index1 < Tile_m_size; index1++){
				for(index0 = 0; index0 < Tile_n_size; index0++){
 4081a1c:	e0bfcc17 	ldw	r2,-208(fp)
 4081a20:	10800044 	addi	r2,r2,1
 4081a24:	e0bfcc15 	stw	r2,-208(fp)
 4081a28:	e0ffcc17 	ldw	r3,-208(fp)
 4081a2c:	e0bfe017 	ldw	r2,-128(fp)
 4081a30:	18bfd836 	bltu	r3,r2,4081994 <__alt_mem_dma_read_memory+0xfff80994>
	PERF_START_MEASURING(PERFORMANCE_COUNTER_0_BASE);

	for(i = 0; i < m / Tile_m_size; i++){
		for(j = 0; j < n / Tile_n_size; j++){
			//Fill Tile_Output
			for(index1 = 0; index1 < Tile_m_size; index1++){
 4081a34:	e0bfcd17 	ldw	r2,-204(fp)
 4081a38:	10800044 	addi	r2,r2,1
 4081a3c:	e0bfcd15 	stw	r2,-204(fp)
 4081a40:	e0ffcd17 	ldw	r3,-204(fp)
 4081a44:	e0bfde17 	ldw	r2,-136(fp)
 4081a48:	18bfd036 	bltu	r3,r2,408198c <__alt_mem_dma_read_memory+0xfff8098c>
				for(index0 = 0; index0 < Tile_n_size; index0++){
					number.IEEE_float = IORD(UNIPHY_DDR3_BASE, OUTPUT_DATA_BASE_ADDRESS + i * Tile_m_size * n + j * Tile_n_size + index1 * n + index0);
					Tile_Output[index1 * Tile_n_size + index0] = number.float_num;
				}
			}
			for(p = 0; p < k / Tile_k_size; p++){
 4081a4c:	e03fd115 	stw	zero,-188(fp)
 4081a50:	0001c406 	br	4082164 <main+0xf94>

				//Fill Tile_Weight
				for(index1 = 0; index1 < Tile_m_size; index1++){
 4081a54:	e03fcd15 	stw	zero,-204(fp)
 4081a58:	00002a06 	br	4081b04 <main+0x934>
					for(index0 = 0; index0 < Tile_k_size; index0++){
 4081a5c:	e03fcc15 	stw	zero,-208(fp)
 4081a60:	00002206 	br	4081aec <main+0x91c>
						number.IEEE_float = IORD(UNIPHY_DDR3_BASE, WEIGHTS_DATA_BASE_ADDRESS + i * Tile_m_size * k + p * Tile_k_size + index1 * k + index0);
 4081a64:	e0ffcf17 	ldw	r3,-196(fp)
 4081a68:	e0bfde17 	ldw	r2,-136(fp)
 4081a6c:	1887383a 	mul	r3,r3,r2
 4081a70:	e0bfdb17 	ldw	r2,-148(fp)
 4081a74:	1887383a 	mul	r3,r3,r2
 4081a78:	e13fd117 	ldw	r4,-188(fp)
 4081a7c:	e0bfdf17 	ldw	r2,-132(fp)
 4081a80:	2085383a 	mul	r2,r4,r2
 4081a84:	1887883a 	add	r3,r3,r2
 4081a88:	e13fdb17 	ldw	r4,-148(fp)
 4081a8c:	e0bfcd17 	ldw	r2,-204(fp)
 4081a90:	2085383a 	mul	r2,r4,r2
 4081a94:	1887883a 	add	r3,r3,r2
 4081a98:	e0bfcc17 	ldw	r2,-208(fp)
 4081a9c:	1885883a 	add	r2,r3,r2
 4081aa0:	1085883a 	add	r2,r2,r2
 4081aa4:	1085883a 	add	r2,r2,r2
 4081aa8:	10800037 	ldwio	r2,0(r2)
 4081aac:	d0a02815 	stw	r2,-32608(gp)
						Tile_Weight[index1 * Tile_k_size + index0] = number.float_num;
 4081ab0:	e0ffcd17 	ldw	r3,-204(fp)
 4081ab4:	e0bfdf17 	ldw	r2,-132(fp)
 4081ab8:	1887383a 	mul	r3,r3,r2
 4081abc:	e0bfcc17 	ldw	r2,-208(fp)
 4081ac0:	1885883a 	add	r2,r3,r2
 4081ac4:	1085883a 	add	r2,r2,r2
 4081ac8:	1085883a 	add	r2,r2,r2
 4081acc:	1007883a 	mov	r3,r2
 4081ad0:	e0bfe217 	ldw	r2,-120(fp)
 4081ad4:	10c5883a 	add	r2,r2,r3
 4081ad8:	d0e02817 	ldw	r3,-32608(gp)
 4081adc:	10c00015 	stw	r3,0(r2)
			}
			for(p = 0; p < k / Tile_k_size; p++){

				//Fill Tile_Weight
				for(index1 = 0; index1 < Tile_m_size; index1++){
					for(index0 = 0; index0 < Tile_k_size; index0++){
 4081ae0:	e0bfcc17 	ldw	r2,-208(fp)
 4081ae4:	10800044 	addi	r2,r2,1
 4081ae8:	e0bfcc15 	stw	r2,-208(fp)
 4081aec:	e0ffcc17 	ldw	r3,-208(fp)
 4081af0:	e0bfdf17 	ldw	r2,-132(fp)
 4081af4:	18bfdb36 	bltu	r3,r2,4081a64 <__alt_mem_dma_read_memory+0xfff80a64>
				}
			}
			for(p = 0; p < k / Tile_k_size; p++){

				//Fill Tile_Weight
				for(index1 = 0; index1 < Tile_m_size; index1++){
 4081af8:	e0bfcd17 	ldw	r2,-204(fp)
 4081afc:	10800044 	addi	r2,r2,1
 4081b00:	e0bfcd15 	stw	r2,-204(fp)
 4081b04:	e0ffcd17 	ldw	r3,-204(fp)
 4081b08:	e0bfde17 	ldw	r2,-136(fp)
 4081b0c:	18bfd336 	bltu	r3,r2,4081a5c <__alt_mem_dma_read_memory+0xfff80a5c>
						Tile_Weight[index1 * Tile_k_size + index0] = number.float_num;
					}
				}

				//Fill Tile_Img2Col_Reduced
                for(index2 = 0; index2 < Tile_n_size / PE_SIZE_X; index2++){
 4081b10:	e03fce15 	stw	zero,-200(fp)
 4081b14:	0000a006 	br	4081d98 <main+0xbc8>
                    for(index1 = 0; index1 < Tile_k_size / PE_SIZE_Y; index1++){
 4081b18:	e03fcd15 	stw	zero,-204(fp)
 4081b1c:	00009406 	br	4081d70 <main+0xba0>
                        for(index0 = 0; index0 < (PE_SIZE_X + PE_SIZE_Y - 1); index0++){
 4081b20:	e03fcc15 	stw	zero,-208(fp)
 4081b24:	00001706 	br	4081b84 <main+0x9b4>
                            Tile_Img2Col_Reduced_Address[index0] =  index2 * (PE_SIZE_X + PE_SIZE_Y - 1) * (Tile_k_size / PE_SIZE_Y) +
 4081b28:	e0bfdf17 	ldw	r2,-132(fp)
 4081b2c:	014000c4 	movi	r5,3
 4081b30:	1009883a 	mov	r4,r2
 4081b34:	408241c0 	call	408241c <__udivsi3>
 4081b38:	1007883a 	mov	r3,r2
 4081b3c:	e0bfce17 	ldw	r2,-200(fp)
 4081b40:	1887383a 	mul	r3,r3,r2
 4081b44:	e0bfcd17 	ldw	r2,-204(fp)
 4081b48:	1885883a 	add	r2,r3,r2
 4081b4c:	10c001a4 	muli	r3,r2,6
                                                                    index1 * (PE_SIZE_X + PE_SIZE_Y - 1) +
 4081b50:	e0bfcc17 	ldw	r2,-208(fp)
 4081b54:	1885883a 	add	r2,r3,r2

				//Fill Tile_Img2Col_Reduced
                for(index2 = 0; index2 < Tile_n_size / PE_SIZE_X; index2++){
                    for(index1 = 0; index1 < Tile_k_size / PE_SIZE_Y; index1++){
                        for(index0 = 0; index0 < (PE_SIZE_X + PE_SIZE_Y - 1); index0++){
                            Tile_Img2Col_Reduced_Address[index0] =  index2 * (PE_SIZE_X + PE_SIZE_Y - 1) * (Tile_k_size / PE_SIZE_Y) +
 4081b58:	1007883a 	mov	r3,r2
 4081b5c:	e0bfcc17 	ldw	r2,-208(fp)
 4081b60:	1085883a 	add	r2,r2,r2
 4081b64:	1085883a 	add	r2,r2,r2
 4081b68:	e13fcc04 	addi	r4,fp,-208
 4081b6c:	2085883a 	add	r2,r4,r2
 4081b70:	10802504 	addi	r2,r2,148
 4081b74:	10c00015 	stw	r3,0(r2)
				}

				//Fill Tile_Img2Col_Reduced
                for(index2 = 0; index2 < Tile_n_size / PE_SIZE_X; index2++){
                    for(index1 = 0; index1 < Tile_k_size / PE_SIZE_Y; index1++){
                        for(index0 = 0; index0 < (PE_SIZE_X + PE_SIZE_Y - 1); index0++){
 4081b78:	e0bfcc17 	ldw	r2,-208(fp)
 4081b7c:	10800044 	addi	r2,r2,1
 4081b80:	e0bfcc15 	stw	r2,-208(fp)
 4081b84:	e0bfcc17 	ldw	r2,-208(fp)
 4081b88:	108001b0 	cmpltui	r2,r2,6
 4081b8c:	103fe61e 	bne	r2,zero,4081b28 <__alt_mem_dma_read_memory+0xfff80b28>
                            Tile_Img2Col_Reduced_Address[index0] =  index2 * (PE_SIZE_X + PE_SIZE_Y - 1) * (Tile_k_size / PE_SIZE_Y) +
                                                                    index1 * (PE_SIZE_X + PE_SIZE_Y - 1) +
                                                                    index0;
                        }

                        for(index0 = 0; index0 < PE_SIZE_X; index0++){
 4081b90:	e03fcc15 	stw	zero,-208(fp)
 4081b94:	00002106 	br	4081c1c <main+0xa4c>
                            b_Address[index0] =
                            j * Tile_n_size + p * Tile_k_size * n +
 4081b98:	e0ffd017 	ldw	r3,-192(fp)
 4081b9c:	e0bfe017 	ldw	r2,-128(fp)
 4081ba0:	1887383a 	mul	r3,r3,r2
 4081ba4:	e13fd117 	ldw	r4,-188(fp)
 4081ba8:	e0bfdf17 	ldw	r2,-132(fp)
 4081bac:	2089383a 	mul	r4,r4,r2
 4081bb0:	e0bfda17 	ldw	r2,-152(fp)
 4081bb4:	2085383a 	mul	r2,r4,r2
 4081bb8:	1889883a 	add	r4,r3,r2
                            index2 * PE_SIZE_X + index1 * PE_SIZE_Y * n + index0;
 4081bbc:	e0ffda17 	ldw	r3,-152(fp)
 4081bc0:	e0bfcd17 	ldw	r2,-204(fp)
 4081bc4:	1887383a 	mul	r3,r3,r2
 4081bc8:	1805883a 	mov	r2,r3
 4081bcc:	1085883a 	add	r2,r2,r2
 4081bd0:	10c7883a 	add	r3,r2,r3
 4081bd4:	e0bfce17 	ldw	r2,-200(fp)
 4081bd8:	1085883a 	add	r2,r2,r2
 4081bdc:	1085883a 	add	r2,r2,r2
 4081be0:	1885883a 	add	r2,r3,r2
 4081be4:	2087883a 	add	r3,r4,r2
 4081be8:	e0bfcc17 	ldw	r2,-208(fp)
 4081bec:	1885883a 	add	r2,r3,r2
                                                                    index1 * (PE_SIZE_X + PE_SIZE_Y - 1) +
                                                                    index0;
                        }

                        for(index0 = 0; index0 < PE_SIZE_X; index0++){
                            b_Address[index0] =
 4081bf0:	1007883a 	mov	r3,r2
 4081bf4:	e0bfcc17 	ldw	r2,-208(fp)
 4081bf8:	1085883a 	add	r2,r2,r2
 4081bfc:	1085883a 	add	r2,r2,r2
 4081c00:	e13fcc04 	addi	r4,fp,-208
 4081c04:	2085883a 	add	r2,r4,r2
 4081c08:	10802b04 	addi	r2,r2,172
 4081c0c:	10c00015 	stw	r3,0(r2)
                            Tile_Img2Col_Reduced_Address[index0] =  index2 * (PE_SIZE_X + PE_SIZE_Y - 1) * (Tile_k_size / PE_SIZE_Y) +
                                                                    index1 * (PE_SIZE_X + PE_SIZE_Y - 1) +
                                                                    index0;
                        }

                        for(index0 = 0; index0 < PE_SIZE_X; index0++){
 4081c10:	e0bfcc17 	ldw	r2,-208(fp)
 4081c14:	10800044 	addi	r2,r2,1
 4081c18:	e0bfcc15 	stw	r2,-208(fp)
 4081c1c:	e0bfcc17 	ldw	r2,-208(fp)
 4081c20:	10800130 	cmpltui	r2,r2,4
 4081c24:	103fdc1e 	bne	r2,zero,4081b98 <__alt_mem_dma_read_memory+0xfff80b98>
                            b_Address[index0] =
                            j * Tile_n_size + p * Tile_k_size * n +
                            index2 * PE_SIZE_X + index1 * PE_SIZE_Y * n + index0;
                        }
                        for(index0 = 0; index0 < PE_SIZE_Y - 1; index0++){
 4081c28:	e03fcc15 	stw	zero,-208(fp)
 4081c2c:	00002606 	br	4081cc8 <main+0xaf8>
                            b_Address[PE_SIZE_X + index0] =
 4081c30:	e0bfcc17 	ldw	r2,-208(fp)
 4081c34:	10c00104 	addi	r3,r2,4
                            j * Tile_n_size + p * Tile_k_size * n +
 4081c38:	e13fd017 	ldw	r4,-192(fp)
 4081c3c:	e0bfe017 	ldw	r2,-128(fp)
 4081c40:	2089383a 	mul	r4,r4,r2
 4081c44:	e17fd117 	ldw	r5,-188(fp)
 4081c48:	e0bfdf17 	ldw	r2,-132(fp)
 4081c4c:	288b383a 	mul	r5,r5,r2
 4081c50:	e0bfda17 	ldw	r2,-152(fp)
 4081c54:	2885383a 	mul	r2,r5,r2
 4081c58:	208b883a 	add	r5,r4,r2
                            index2 * PE_SIZE_X + index1 * PE_SIZE_Y * n + (PE_SIZE_X - 1) + (index0 + 1) * n;
 4081c5c:	e13fda17 	ldw	r4,-152(fp)
 4081c60:	e0bfcd17 	ldw	r2,-204(fp)
 4081c64:	2089383a 	mul	r4,r4,r2
 4081c68:	2005883a 	mov	r2,r4
 4081c6c:	1085883a 	add	r2,r2,r2
 4081c70:	1109883a 	add	r4,r2,r4
 4081c74:	e0bfce17 	ldw	r2,-200(fp)
 4081c78:	1085883a 	add	r2,r2,r2
 4081c7c:	1085883a 	add	r2,r2,r2
 4081c80:	2085883a 	add	r2,r4,r2
 4081c84:	2889883a 	add	r4,r5,r2
 4081c88:	e0bfcc17 	ldw	r2,-208(fp)
 4081c8c:	11400044 	addi	r5,r2,1
 4081c90:	e0bfda17 	ldw	r2,-152(fp)
 4081c94:	2885383a 	mul	r2,r5,r2
 4081c98:	2085883a 	add	r2,r4,r2
 4081c9c:	108000c4 	addi	r2,r2,3
                            b_Address[index0] =
                            j * Tile_n_size + p * Tile_k_size * n +
                            index2 * PE_SIZE_X + index1 * PE_SIZE_Y * n + index0;
                        }
                        for(index0 = 0; index0 < PE_SIZE_Y - 1; index0++){
                            b_Address[PE_SIZE_X + index0] =
 4081ca0:	1009883a 	mov	r4,r2
 4081ca4:	18c5883a 	add	r2,r3,r3
 4081ca8:	1085883a 	add	r2,r2,r2
 4081cac:	e0ffcc04 	addi	r3,fp,-208
 4081cb0:	1885883a 	add	r2,r3,r2
 4081cb4:	10802b04 	addi	r2,r2,172
 4081cb8:	11000015 	stw	r4,0(r2)
                        for(index0 = 0; index0 < PE_SIZE_X; index0++){
                            b_Address[index0] =
                            j * Tile_n_size + p * Tile_k_size * n +
                            index2 * PE_SIZE_X + index1 * PE_SIZE_Y * n + index0;
                        }
                        for(index0 = 0; index0 < PE_SIZE_Y - 1; index0++){
 4081cbc:	e0bfcc17 	ldw	r2,-208(fp)
 4081cc0:	10800044 	addi	r2,r2,1
 4081cc4:	e0bfcc15 	stw	r2,-208(fp)
 4081cc8:	e0bfcc17 	ldw	r2,-208(fp)
 4081ccc:	108000b0 	cmpltui	r2,r2,2
 4081cd0:	103fd71e 	bne	r2,zero,4081c30 <__alt_mem_dma_read_memory+0xfff80c30>
                            b_Address[PE_SIZE_X + index0] =
                            j * Tile_n_size + p * Tile_k_size * n +
                            index2 * PE_SIZE_X + index1 * PE_SIZE_Y * n + (PE_SIZE_X - 1) + (index0 + 1) * n;
                        }

                        for(index0 = 0; index0 < (PE_SIZE_X + PE_SIZE_Y - 1); index0++){
 4081cd4:	e03fcc15 	stw	zero,-208(fp)
 4081cd8:	00001f06 	br	4081d58 <main+0xb88>
    						number.IEEE_float = IORD(UNIPHY_DDR3_BASE, IMG2COL_DATA_BASE_ADDRESS + b_Address[index0]);
 4081cdc:	e0bfcc17 	ldw	r2,-208(fp)
 4081ce0:	1085883a 	add	r2,r2,r2
 4081ce4:	1085883a 	add	r2,r2,r2
 4081ce8:	e13fcc04 	addi	r4,fp,-208
 4081cec:	2085883a 	add	r2,r4,r2
 4081cf0:	10802b04 	addi	r2,r2,172
 4081cf4:	10c00017 	ldw	r3,0(r2)
 4081cf8:	008000f4 	movhi	r2,3
 4081cfc:	10835004 	addi	r2,r2,3392
 4081d00:	1885883a 	add	r2,r3,r2
 4081d04:	1085883a 	add	r2,r2,r2
 4081d08:	1085883a 	add	r2,r2,r2
 4081d0c:	10800037 	ldwio	r2,0(r2)
 4081d10:	d0a02815 	stw	r2,-32608(gp)
    						Tile_Img2Col_Reduced[Tile_Img2Col_Reduced_Address[index0]] = number.float_num;
 4081d14:	e0bfcc17 	ldw	r2,-208(fp)
 4081d18:	1085883a 	add	r2,r2,r2
 4081d1c:	1085883a 	add	r2,r2,r2
 4081d20:	e0ffcc04 	addi	r3,fp,-208
 4081d24:	1885883a 	add	r2,r3,r2
 4081d28:	10802504 	addi	r2,r2,148
 4081d2c:	10800017 	ldw	r2,0(r2)
 4081d30:	1085883a 	add	r2,r2,r2
 4081d34:	1085883a 	add	r2,r2,r2
 4081d38:	1007883a 	mov	r3,r2
 4081d3c:	e0bfe417 	ldw	r2,-112(fp)
 4081d40:	10c5883a 	add	r2,r2,r3
 4081d44:	d0e02817 	ldw	r3,-32608(gp)
 4081d48:	10c00015 	stw	r3,0(r2)
                            b_Address[PE_SIZE_X + index0] =
                            j * Tile_n_size + p * Tile_k_size * n +
                            index2 * PE_SIZE_X + index1 * PE_SIZE_Y * n + (PE_SIZE_X - 1) + (index0 + 1) * n;
                        }

                        for(index0 = 0; index0 < (PE_SIZE_X + PE_SIZE_Y - 1); index0++){
 4081d4c:	e0bfcc17 	ldw	r2,-208(fp)
 4081d50:	10800044 	addi	r2,r2,1
 4081d54:	e0bfcc15 	stw	r2,-208(fp)
 4081d58:	e0bfcc17 	ldw	r2,-208(fp)
 4081d5c:	108001b0 	cmpltui	r2,r2,6
 4081d60:	103fde1e 	bne	r2,zero,4081cdc <__alt_mem_dma_read_memory+0xfff80cdc>
					}
				}

				//Fill Tile_Img2Col_Reduced
                for(index2 = 0; index2 < Tile_n_size / PE_SIZE_X; index2++){
                    for(index1 = 0; index1 < Tile_k_size / PE_SIZE_Y; index1++){
 4081d64:	e0bfcd17 	ldw	r2,-204(fp)
 4081d68:	10800044 	addi	r2,r2,1
 4081d6c:	e0bfcd15 	stw	r2,-204(fp)
 4081d70:	e0bfdf17 	ldw	r2,-132(fp)
 4081d74:	014000c4 	movi	r5,3
 4081d78:	1009883a 	mov	r4,r2
 4081d7c:	408241c0 	call	408241c <__udivsi3>
 4081d80:	1007883a 	mov	r3,r2
 4081d84:	e0bfcd17 	ldw	r2,-204(fp)
 4081d88:	10ff6536 	bltu	r2,r3,4081b20 <__alt_mem_dma_read_memory+0xfff80b20>
						Tile_Weight[index1 * Tile_k_size + index0] = number.float_num;
					}
				}

				//Fill Tile_Img2Col_Reduced
                for(index2 = 0; index2 < Tile_n_size / PE_SIZE_X; index2++){
 4081d8c:	e0bfce17 	ldw	r2,-200(fp)
 4081d90:	10800044 	addi	r2,r2,1
 4081d94:	e0bfce15 	stw	r2,-200(fp)
 4081d98:	e0bfe017 	ldw	r2,-128(fp)
 4081d9c:	1004d0ba 	srli	r2,r2,2
 4081da0:	e0ffce17 	ldw	r3,-200(fp)
 4081da4:	18bf5c36 	bltu	r3,r2,4081b18 <__alt_mem_dma_read_memory+0xfff80b18>
                    }
                }

                //Edge Case

                if((Tile_n_size % PE_SIZE_X != 0)){
 4081da8:	e0bfe017 	ldw	r2,-128(fp)
 4081dac:	108000cc 	andi	r2,r2,3
 4081db0:	1000dd26 	beq	r2,zero,4082128 <main+0xf58>
                    for(index1 = 0; index1 < Tile_k_size / PE_SIZE_Y; index1++){
 4081db4:	e03fcd15 	stw	zero,-204(fp)
 4081db8:	0000d406 	br	408210c <main+0xf3c>
                        for(index0 = 0; index0 < (PE_SIZE_X + PE_SIZE_Y - 1); index0++){
 4081dbc:	e03fcc15 	stw	zero,-208(fp)
 4081dc0:	00001706 	br	4081e20 <main+0xc50>
                            Tile_Img2Col_Reduced_Address[index0] =  (Tile_n_size / PE_SIZE_X) * (PE_SIZE_X + PE_SIZE_Y - 1) * (Tile_k_size / PE_SIZE_Y) +
 4081dc4:	e0bfe017 	ldw	r2,-128(fp)
 4081dc8:	1020d0ba 	srli	r16,r2,2
 4081dcc:	e0bfdf17 	ldw	r2,-132(fp)
 4081dd0:	014000c4 	movi	r5,3
 4081dd4:	1009883a 	mov	r4,r2
 4081dd8:	408241c0 	call	408241c <__udivsi3>
 4081ddc:	8087383a 	mul	r3,r16,r2
 4081de0:	e0bfcd17 	ldw	r2,-204(fp)
 4081de4:	1885883a 	add	r2,r3,r2
 4081de8:	10c001a4 	muli	r3,r2,6
                                                                    index1 * (PE_SIZE_X + PE_SIZE_Y - 1) + index0;
 4081dec:	e0bfcc17 	ldw	r2,-208(fp)
 4081df0:	1885883a 	add	r2,r3,r2
                //Edge Case

                if((Tile_n_size % PE_SIZE_X != 0)){
                    for(index1 = 0; index1 < Tile_k_size / PE_SIZE_Y; index1++){
                        for(index0 = 0; index0 < (PE_SIZE_X + PE_SIZE_Y - 1); index0++){
                            Tile_Img2Col_Reduced_Address[index0] =  (Tile_n_size / PE_SIZE_X) * (PE_SIZE_X + PE_SIZE_Y - 1) * (Tile_k_size / PE_SIZE_Y) +
 4081df4:	1007883a 	mov	r3,r2
 4081df8:	e0bfcc17 	ldw	r2,-208(fp)
 4081dfc:	1085883a 	add	r2,r2,r2
 4081e00:	1085883a 	add	r2,r2,r2
 4081e04:	e13fcc04 	addi	r4,fp,-208
 4081e08:	2085883a 	add	r2,r4,r2
 4081e0c:	10802504 	addi	r2,r2,148
 4081e10:	10c00015 	stw	r3,0(r2)

                //Edge Case

                if((Tile_n_size % PE_SIZE_X != 0)){
                    for(index1 = 0; index1 < Tile_k_size / PE_SIZE_Y; index1++){
                        for(index0 = 0; index0 < (PE_SIZE_X + PE_SIZE_Y - 1); index0++){
 4081e14:	e0bfcc17 	ldw	r2,-208(fp)
 4081e18:	10800044 	addi	r2,r2,1
 4081e1c:	e0bfcc15 	stw	r2,-208(fp)
 4081e20:	e0bfcc17 	ldw	r2,-208(fp)
 4081e24:	108001b0 	cmpltui	r2,r2,6
 4081e28:	103fe61e 	bne	r2,zero,4081dc4 <__alt_mem_dma_read_memory+0xfff80dc4>
                            Tile_Img2Col_Reduced_Address[index0] =  (Tile_n_size / PE_SIZE_X) * (PE_SIZE_X + PE_SIZE_Y - 1) * (Tile_k_size / PE_SIZE_Y) +
                                                                    index1 * (PE_SIZE_X + PE_SIZE_Y - 1) + index0;
                        }

                        for(index0 = 0; index0 < Tile_n_size % PE_SIZE_X ; index0++){
 4081e2c:	e03fcc15 	stw	zero,-208(fp)
 4081e30:	00003e06 	br	4081f2c <main+0xd5c>
                            b_Address[index0]
                                = j * Tile_n_size + p * Tile_k_size * n + (Tile_n_size / PE_SIZE_X) * PE_SIZE_X + index1 * PE_SIZE_Y * n + index0;
 4081e34:	e0ffd017 	ldw	r3,-192(fp)
 4081e38:	e0bfe017 	ldw	r2,-128(fp)
 4081e3c:	1887383a 	mul	r3,r3,r2
 4081e40:	e13fd117 	ldw	r4,-188(fp)
 4081e44:	e0bfdf17 	ldw	r2,-132(fp)
 4081e48:	2089383a 	mul	r4,r4,r2
 4081e4c:	e0bfda17 	ldw	r2,-152(fp)
 4081e50:	2085383a 	mul	r2,r4,r2
 4081e54:	1889883a 	add	r4,r3,r2
 4081e58:	e0ffda17 	ldw	r3,-152(fp)
 4081e5c:	e0bfcd17 	ldw	r2,-204(fp)
 4081e60:	1887383a 	mul	r3,r3,r2
 4081e64:	1805883a 	mov	r2,r3
 4081e68:	1085883a 	add	r2,r2,r2
 4081e6c:	10c7883a 	add	r3,r2,r3
 4081e70:	e0bfe017 	ldw	r2,-128(fp)
 4081e74:	1004d0ba 	srli	r2,r2,2
 4081e78:	1085883a 	add	r2,r2,r2
 4081e7c:	1085883a 	add	r2,r2,r2
 4081e80:	1885883a 	add	r2,r3,r2
 4081e84:	2087883a 	add	r3,r4,r2
 4081e88:	e0bfcc17 	ldw	r2,-208(fp)
 4081e8c:	1885883a 	add	r2,r3,r2
 4081e90:	1007883a 	mov	r3,r2
 4081e94:	e0bfcc17 	ldw	r2,-208(fp)
 4081e98:	1085883a 	add	r2,r2,r2
 4081e9c:	1085883a 	add	r2,r2,r2
 4081ea0:	e13fcc04 	addi	r4,fp,-208
 4081ea4:	2085883a 	add	r2,r4,r2
 4081ea8:	10802b04 	addi	r2,r2,172
 4081eac:	10c00015 	stw	r3,0(r2)

                            number.IEEE_float = IORD(UNIPHY_DDR3_BASE, IMG2COL_DATA_BASE_ADDRESS + b_Address[index0]);
 4081eb0:	e0bfcc17 	ldw	r2,-208(fp)
 4081eb4:	1085883a 	add	r2,r2,r2
 4081eb8:	1085883a 	add	r2,r2,r2
 4081ebc:	e0ffcc04 	addi	r3,fp,-208
 4081ec0:	1885883a 	add	r2,r3,r2
 4081ec4:	10802b04 	addi	r2,r2,172
 4081ec8:	10c00017 	ldw	r3,0(r2)
 4081ecc:	008000f4 	movhi	r2,3
 4081ed0:	10835004 	addi	r2,r2,3392
 4081ed4:	1885883a 	add	r2,r3,r2
 4081ed8:	1085883a 	add	r2,r2,r2
 4081edc:	1085883a 	add	r2,r2,r2
 4081ee0:	10800037 	ldwio	r2,0(r2)
 4081ee4:	d0a02815 	stw	r2,-32608(gp)
    						Tile_Img2Col_Reduced[Tile_Img2Col_Reduced_Address[index0]] = number.float_num;
 4081ee8:	e0bfcc17 	ldw	r2,-208(fp)
 4081eec:	1085883a 	add	r2,r2,r2
 4081ef0:	1085883a 	add	r2,r2,r2
 4081ef4:	e13fcc04 	addi	r4,fp,-208
 4081ef8:	2085883a 	add	r2,r4,r2
 4081efc:	10802504 	addi	r2,r2,148
 4081f00:	10800017 	ldw	r2,0(r2)
 4081f04:	1085883a 	add	r2,r2,r2
 4081f08:	1085883a 	add	r2,r2,r2
 4081f0c:	1007883a 	mov	r3,r2
 4081f10:	e0bfe417 	ldw	r2,-112(fp)
 4081f14:	10c5883a 	add	r2,r2,r3
 4081f18:	d0e02817 	ldw	r3,-32608(gp)
 4081f1c:	10c00015 	stw	r3,0(r2)
                        for(index0 = 0; index0 < (PE_SIZE_X + PE_SIZE_Y - 1); index0++){
                            Tile_Img2Col_Reduced_Address[index0] =  (Tile_n_size / PE_SIZE_X) * (PE_SIZE_X + PE_SIZE_Y - 1) * (Tile_k_size / PE_SIZE_Y) +
                                                                    index1 * (PE_SIZE_X + PE_SIZE_Y - 1) + index0;
                        }

                        for(index0 = 0; index0 < Tile_n_size % PE_SIZE_X ; index0++){
 4081f20:	e0bfcc17 	ldw	r2,-208(fp)
 4081f24:	10800044 	addi	r2,r2,1
 4081f28:	e0bfcc15 	stw	r2,-208(fp)
 4081f2c:	e0bfe017 	ldw	r2,-128(fp)
 4081f30:	108000cc 	andi	r2,r2,3
 4081f34:	e0ffcc17 	ldw	r3,-208(fp)
 4081f38:	18bfbe36 	bltu	r3,r2,4081e34 <__alt_mem_dma_read_memory+0xfff80e34>
                                = j * Tile_n_size + p * Tile_k_size * n + (Tile_n_size / PE_SIZE_X) * PE_SIZE_X + index1 * PE_SIZE_Y * n + index0;

                            number.IEEE_float = IORD(UNIPHY_DDR3_BASE, IMG2COL_DATA_BASE_ADDRESS + b_Address[index0]);
    						Tile_Img2Col_Reduced[Tile_Img2Col_Reduced_Address[index0]] = number.float_num;
                        }
                        for(index0 = 0; index0 < PE_SIZE_Y - 1; index0++){
 4081f3c:	e03fcc15 	stw	zero,-208(fp)
 4081f40:	00005006 	br	4082084 <main+0xeb4>
                            b_Address[Tile_n_size % PE_SIZE_X - 1 + index0]
 4081f44:	e0bfe017 	ldw	r2,-128(fp)
 4081f48:	10c000cc 	andi	r3,r2,3
 4081f4c:	e0bfcc17 	ldw	r2,-208(fp)
 4081f50:	1885883a 	add	r2,r3,r2
 4081f54:	10ffffc4 	addi	r3,r2,-1
                                = j * Tile_n_size + p * Tile_k_size * n + (Tile_n_size / PE_SIZE_X) * PE_SIZE_X +
 4081f58:	e13fd017 	ldw	r4,-192(fp)
 4081f5c:	e0bfe017 	ldw	r2,-128(fp)
 4081f60:	2089383a 	mul	r4,r4,r2
 4081f64:	e17fd117 	ldw	r5,-188(fp)
 4081f68:	e0bfdf17 	ldw	r2,-132(fp)
 4081f6c:	288b383a 	mul	r5,r5,r2
 4081f70:	e0bfda17 	ldw	r2,-152(fp)
 4081f74:	2885383a 	mul	r2,r5,r2
 4081f78:	208b883a 	add	r5,r4,r2
                                index1 * PE_SIZE_Y * n + (Tile_n_size % PE_SIZE_X) + (index0 + 1) * n - 1;
 4081f7c:	e13fda17 	ldw	r4,-152(fp)
 4081f80:	e0bfcd17 	ldw	r2,-204(fp)
 4081f84:	2089383a 	mul	r4,r4,r2
 4081f88:	2005883a 	mov	r2,r4
 4081f8c:	1085883a 	add	r2,r2,r2
 4081f90:	1109883a 	add	r4,r2,r4
                            number.IEEE_float = IORD(UNIPHY_DDR3_BASE, IMG2COL_DATA_BASE_ADDRESS + b_Address[index0]);
    						Tile_Img2Col_Reduced[Tile_Img2Col_Reduced_Address[index0]] = number.float_num;
                        }
                        for(index0 = 0; index0 < PE_SIZE_Y - 1; index0++){
                            b_Address[Tile_n_size % PE_SIZE_X - 1 + index0]
                                = j * Tile_n_size + p * Tile_k_size * n + (Tile_n_size / PE_SIZE_X) * PE_SIZE_X +
 4081f94:	e0bfe017 	ldw	r2,-128(fp)
 4081f98:	1004d0ba 	srli	r2,r2,2
 4081f9c:	1085883a 	add	r2,r2,r2
 4081fa0:	1085883a 	add	r2,r2,r2
 4081fa4:	2085883a 	add	r2,r4,r2
 4081fa8:	2889883a 	add	r4,r5,r2
                                index1 * PE_SIZE_Y * n + (Tile_n_size % PE_SIZE_X) + (index0 + 1) * n - 1;
 4081fac:	e0bfe017 	ldw	r2,-128(fp)
 4081fb0:	108000cc 	andi	r2,r2,3
 4081fb4:	2089883a 	add	r4,r4,r2
 4081fb8:	e0bfcc17 	ldw	r2,-208(fp)
 4081fbc:	11400044 	addi	r5,r2,1
 4081fc0:	e0bfda17 	ldw	r2,-152(fp)
 4081fc4:	2885383a 	mul	r2,r5,r2
 4081fc8:	2085883a 	add	r2,r4,r2
 4081fcc:	10bfffc4 	addi	r2,r2,-1
                            number.IEEE_float = IORD(UNIPHY_DDR3_BASE, IMG2COL_DATA_BASE_ADDRESS + b_Address[index0]);
    						Tile_Img2Col_Reduced[Tile_Img2Col_Reduced_Address[index0]] = number.float_num;
                        }
                        for(index0 = 0; index0 < PE_SIZE_Y - 1; index0++){
                            b_Address[Tile_n_size % PE_SIZE_X - 1 + index0]
                                = j * Tile_n_size + p * Tile_k_size * n + (Tile_n_size / PE_SIZE_X) * PE_SIZE_X +
 4081fd0:	1009883a 	mov	r4,r2
 4081fd4:	18c5883a 	add	r2,r3,r3
 4081fd8:	1085883a 	add	r2,r2,r2
 4081fdc:	e0ffcc04 	addi	r3,fp,-208
 4081fe0:	1885883a 	add	r2,r3,r2
 4081fe4:	10802b04 	addi	r2,r2,172
 4081fe8:	11000015 	stw	r4,0(r2)
                                index1 * PE_SIZE_Y * n + (Tile_n_size % PE_SIZE_X) + (index0 + 1) * n - 1;

                            number.IEEE_float = IORD(UNIPHY_DDR3_BASE, IMG2COL_DATA_BASE_ADDRESS + b_Address[Tile_n_size % PE_SIZE_X - 1 + index0]);
 4081fec:	e0bfe017 	ldw	r2,-128(fp)
 4081ff0:	10c000cc 	andi	r3,r2,3
 4081ff4:	e0bfcc17 	ldw	r2,-208(fp)
 4081ff8:	1885883a 	add	r2,r3,r2
 4081ffc:	10bfffc4 	addi	r2,r2,-1
 4082000:	1085883a 	add	r2,r2,r2
 4082004:	1085883a 	add	r2,r2,r2
 4082008:	e13fcc04 	addi	r4,fp,-208
 408200c:	2085883a 	add	r2,r4,r2
 4082010:	10802b04 	addi	r2,r2,172
 4082014:	10c00017 	ldw	r3,0(r2)
 4082018:	008000f4 	movhi	r2,3
 408201c:	10835004 	addi	r2,r2,3392
 4082020:	1885883a 	add	r2,r3,r2
 4082024:	1085883a 	add	r2,r2,r2
 4082028:	1085883a 	add	r2,r2,r2
 408202c:	10800037 	ldwio	r2,0(r2)
 4082030:	d0a02815 	stw	r2,-32608(gp)
    						Tile_Img2Col_Reduced[Tile_Img2Col_Reduced_Address[index0 + Tile_n_size % PE_SIZE_X]] = number.float_num;
 4082034:	e0bfe017 	ldw	r2,-128(fp)
 4082038:	10c000cc 	andi	r3,r2,3
 408203c:	e0bfcc17 	ldw	r2,-208(fp)
 4082040:	1885883a 	add	r2,r3,r2
 4082044:	1085883a 	add	r2,r2,r2
 4082048:	1085883a 	add	r2,r2,r2
 408204c:	e0ffcc04 	addi	r3,fp,-208
 4082050:	1885883a 	add	r2,r3,r2
 4082054:	10802504 	addi	r2,r2,148
 4082058:	10800017 	ldw	r2,0(r2)
 408205c:	1085883a 	add	r2,r2,r2
 4082060:	1085883a 	add	r2,r2,r2
 4082064:	1007883a 	mov	r3,r2
 4082068:	e0bfe417 	ldw	r2,-112(fp)
 408206c:	10c5883a 	add	r2,r2,r3
 4082070:	d0e02817 	ldw	r3,-32608(gp)
 4082074:	10c00015 	stw	r3,0(r2)
                                = j * Tile_n_size + p * Tile_k_size * n + (Tile_n_size / PE_SIZE_X) * PE_SIZE_X + index1 * PE_SIZE_Y * n + index0;

                            number.IEEE_float = IORD(UNIPHY_DDR3_BASE, IMG2COL_DATA_BASE_ADDRESS + b_Address[index0]);
    						Tile_Img2Col_Reduced[Tile_Img2Col_Reduced_Address[index0]] = number.float_num;
                        }
                        for(index0 = 0; index0 < PE_SIZE_Y - 1; index0++){
 4082078:	e0bfcc17 	ldw	r2,-208(fp)
 408207c:	10800044 	addi	r2,r2,1
 4082080:	e0bfcc15 	stw	r2,-208(fp)
 4082084:	e0bfcc17 	ldw	r2,-208(fp)
 4082088:	108000b0 	cmpltui	r2,r2,2
 408208c:	103fad1e 	bne	r2,zero,4081f44 <__alt_mem_dma_read_memory+0xfff80f44>
                                index1 * PE_SIZE_Y * n + (Tile_n_size % PE_SIZE_X) + (index0 + 1) * n - 1;

                            number.IEEE_float = IORD(UNIPHY_DDR3_BASE, IMG2COL_DATA_BASE_ADDRESS + b_Address[Tile_n_size % PE_SIZE_X - 1 + index0]);
    						Tile_Img2Col_Reduced[Tile_Img2Col_Reduced_Address[index0 + Tile_n_size % PE_SIZE_X]] = number.float_num;
                                                    }
                        for(index0 = 0; index0 < PE_SIZE_X - (Tile_n_size % PE_SIZE_X); index0++){
 4082090:	e03fcc15 	stw	zero,-208(fp)
 4082094:	00001406 	br	40820e8 <main+0xf18>
                            Tile_Img2Col_Reduced[Tile_Img2Col_Reduced_Address[index0 + Tile_n_size % PE_SIZE_X + (PE_SIZE_Y - 1)]] = 0;
 4082098:	e0bfe017 	ldw	r2,-128(fp)
 408209c:	10c000cc 	andi	r3,r2,3
 40820a0:	e0bfcc17 	ldw	r2,-208(fp)
 40820a4:	1885883a 	add	r2,r3,r2
 40820a8:	10800084 	addi	r2,r2,2
 40820ac:	1085883a 	add	r2,r2,r2
 40820b0:	1085883a 	add	r2,r2,r2
 40820b4:	e13fcc04 	addi	r4,fp,-208
 40820b8:	2085883a 	add	r2,r4,r2
 40820bc:	10802504 	addi	r2,r2,148
 40820c0:	10800017 	ldw	r2,0(r2)
 40820c4:	1085883a 	add	r2,r2,r2
 40820c8:	1085883a 	add	r2,r2,r2
 40820cc:	1007883a 	mov	r3,r2
 40820d0:	e0bfe417 	ldw	r2,-112(fp)
 40820d4:	10c5883a 	add	r2,r2,r3
 40820d8:	10000015 	stw	zero,0(r2)
                                index1 * PE_SIZE_Y * n + (Tile_n_size % PE_SIZE_X) + (index0 + 1) * n - 1;

                            number.IEEE_float = IORD(UNIPHY_DDR3_BASE, IMG2COL_DATA_BASE_ADDRESS + b_Address[Tile_n_size % PE_SIZE_X - 1 + index0]);
    						Tile_Img2Col_Reduced[Tile_Img2Col_Reduced_Address[index0 + Tile_n_size % PE_SIZE_X]] = number.float_num;
                                                    }
                        for(index0 = 0; index0 < PE_SIZE_X - (Tile_n_size % PE_SIZE_X); index0++){
 40820dc:	e0bfcc17 	ldw	r2,-208(fp)
 40820e0:	10800044 	addi	r2,r2,1
 40820e4:	e0bfcc15 	stw	r2,-208(fp)
 40820e8:	e0bfe017 	ldw	r2,-128(fp)
 40820ec:	108000cc 	andi	r2,r2,3
 40820f0:	00c00104 	movi	r3,4
 40820f4:	1885c83a 	sub	r2,r3,r2
 40820f8:	e0ffcc17 	ldw	r3,-208(fp)
 40820fc:	18bfe636 	bltu	r3,r2,4082098 <__alt_mem_dma_read_memory+0xfff81098>
                }

                //Edge Case

                if((Tile_n_size % PE_SIZE_X != 0)){
                    for(index1 = 0; index1 < Tile_k_size / PE_SIZE_Y; index1++){
 4082100:	e0bfcd17 	ldw	r2,-204(fp)
 4082104:	10800044 	addi	r2,r2,1
 4082108:	e0bfcd15 	stw	r2,-204(fp)
 408210c:	e0bfdf17 	ldw	r2,-132(fp)
 4082110:	014000c4 	movi	r5,3
 4082114:	1009883a 	mov	r4,r2
 4082118:	408241c0 	call	408241c <__udivsi3>
 408211c:	1007883a 	mov	r3,r2
 4082120:	e0bfcd17 	ldw	r2,-204(fp)
 4082124:	10ff2536 	bltu	r2,r3,4081dbc <__alt_mem_dma_read_memory+0xfff80dbc>
                        }

                    }
                }

				PE_Instruction(Tile_m_size, Tile_n_size, Tile_k_size, Tile_Weight, Tile_Img2Col_Reduced, Tile_Output);
 4082128:	e0ffde17 	ldw	r3,-136(fp)
 408212c:	e13fe017 	ldw	r4,-128(fp)
 4082130:	e17fdf17 	ldw	r5,-132(fp)
 4082134:	e0bfe117 	ldw	r2,-124(fp)
 4082138:	d8800115 	stw	r2,4(sp)
 408213c:	e0bfe417 	ldw	r2,-112(fp)
 4082140:	d8800015 	stw	r2,0(sp)
 4082144:	e1ffe217 	ldw	r7,-120(fp)
 4082148:	280d883a 	mov	r6,r5
 408214c:	200b883a 	mov	r5,r4
 4082150:	1809883a 	mov	r4,r3
 4082154:	4080b800 	call	4080b80 <PE_Instruction>
				for(index0 = 0; index0 < Tile_n_size; index0++){
					number.IEEE_float = IORD(UNIPHY_DDR3_BASE, OUTPUT_DATA_BASE_ADDRESS + i * Tile_m_size * n + j * Tile_n_size + index1 * n + index0);
					Tile_Output[index1 * Tile_n_size + index0] = number.float_num;
				}
			}
			for(p = 0; p < k / Tile_k_size; p++){
 4082158:	e0bfd117 	ldw	r2,-188(fp)
 408215c:	10800044 	addi	r2,r2,1
 4082160:	e0bfd115 	stw	r2,-188(fp)
 4082164:	e0bfdb17 	ldw	r2,-148(fp)
 4082168:	e17fdf17 	ldw	r5,-132(fp)
 408216c:	1009883a 	mov	r4,r2
 4082170:	408241c0 	call	408241c <__udivsi3>
 4082174:	1007883a 	mov	r3,r2
 4082178:	e0bfd117 	ldw	r2,-188(fp)
 408217c:	10fe3536 	bltu	r2,r3,4081a54 <__alt_mem_dma_read_memory+0xfff80a54>

				PE_Instruction(Tile_m_size, Tile_n_size, Tile_k_size, Tile_Weight, Tile_Img2Col_Reduced, Tile_Output);

			}
			//Fill Tile_Output
			for(index1 = 0; index1 < Tile_m_size; index1++){
 4082180:	e03fcd15 	stw	zero,-204(fp)
 4082184:	00002d06 	br	408223c <main+0x106c>
				for(index0 = 0; index0 < Tile_n_size; index0++){
 4082188:	e03fcc15 	stw	zero,-208(fp)
 408218c:	00002506 	br	4082224 <main+0x1054>
					number.float_num = Tile_Output[index1 * Tile_n_size + index0];
 4082190:	e0ffcd17 	ldw	r3,-204(fp)
 4082194:	e0bfe017 	ldw	r2,-128(fp)
 4082198:	1887383a 	mul	r3,r3,r2
 408219c:	e0bfcc17 	ldw	r2,-208(fp)
 40821a0:	1885883a 	add	r2,r3,r2
 40821a4:	1085883a 	add	r2,r2,r2
 40821a8:	1085883a 	add	r2,r2,r2
 40821ac:	1007883a 	mov	r3,r2
 40821b0:	e0bfe117 	ldw	r2,-124(fp)
 40821b4:	10c7883a 	add	r3,r2,r3
 40821b8:	18800017 	ldw	r2,0(r3)
 40821bc:	d0a02815 	stw	r2,-32608(gp)
					IOWR(UNIPHY_DDR3_BASE, OUTPUT_DATA_BASE_ADDRESS + i * Tile_m_size * n + j * Tile_n_size + index1 * n + index0, number.IEEE_float);
 40821c0:	e0ffcf17 	ldw	r3,-196(fp)
 40821c4:	e0bfde17 	ldw	r2,-136(fp)
 40821c8:	1887383a 	mul	r3,r3,r2
 40821cc:	e0bfda17 	ldw	r2,-152(fp)
 40821d0:	1887383a 	mul	r3,r3,r2
 40821d4:	e13fd017 	ldw	r4,-192(fp)
 40821d8:	e0bfe017 	ldw	r2,-128(fp)
 40821dc:	2085383a 	mul	r2,r4,r2
 40821e0:	1887883a 	add	r3,r3,r2
 40821e4:	e13fda17 	ldw	r4,-152(fp)
 40821e8:	e0bfcd17 	ldw	r2,-204(fp)
 40821ec:	2085383a 	mul	r2,r4,r2
 40821f0:	1887883a 	add	r3,r3,r2
 40821f4:	e0bfcc17 	ldw	r2,-208(fp)
 40821f8:	1887883a 	add	r3,r3,r2
 40821fc:	00800274 	movhi	r2,9
 4082200:	1089f004 	addi	r2,r2,10176
 4082204:	1885883a 	add	r2,r3,r2
 4082208:	1085883a 	add	r2,r2,r2
 408220c:	1085883a 	add	r2,r2,r2
 4082210:	d0e02817 	ldw	r3,-32608(gp)
 4082214:	10c00035 	stwio	r3,0(r2)
				PE_Instruction(Tile_m_size, Tile_n_size, Tile_k_size, Tile_Weight, Tile_Img2Col_Reduced, Tile_Output);

			}
			//Fill Tile_Output
			for(index1 = 0; index1 < Tile_m_size; index1++){
				for(index0 = 0; index0 < Tile_n_size; index0++){
 4082218:	e0bfcc17 	ldw	r2,-208(fp)
 408221c:	10800044 	addi	r2,r2,1
 4082220:	e0bfcc15 	stw	r2,-208(fp)
 4082224:	e0ffcc17 	ldw	r3,-208(fp)
 4082228:	e0bfe017 	ldw	r2,-128(fp)
 408222c:	18bfd836 	bltu	r3,r2,4082190 <__alt_mem_dma_read_memory+0xfff81190>

				PE_Instruction(Tile_m_size, Tile_n_size, Tile_k_size, Tile_Weight, Tile_Img2Col_Reduced, Tile_Output);

			}
			//Fill Tile_Output
			for(index1 = 0; index1 < Tile_m_size; index1++){
 4082230:	e0bfcd17 	ldw	r2,-204(fp)
 4082234:	10800044 	addi	r2,r2,1
 4082238:	e0bfcd15 	stw	r2,-204(fp)
 408223c:	e0ffcd17 	ldw	r3,-204(fp)
 4082240:	e0bfde17 	ldw	r2,-136(fp)
 4082244:	18bfd036 	bltu	r3,r2,4082188 <__alt_mem_dma_read_memory+0xfff81188>
	printf ("(PE)Calculating...\n");
	time_begin_pe = perf_get_total_time  ((void*)PERFORMANCE_COUNTER_0_BASE);
	PERF_START_MEASURING(PERFORMANCE_COUNTER_0_BASE);

	for(i = 0; i < m / Tile_m_size; i++){
		for(j = 0; j < n / Tile_n_size; j++){
 4082248:	e0bfd017 	ldw	r2,-192(fp)
 408224c:	10800044 	addi	r2,r2,1
 4082250:	e0bfd015 	stw	r2,-192(fp)
 4082254:	e0bfda17 	ldw	r2,-152(fp)
 4082258:	e17fe017 	ldw	r5,-128(fp)
 408225c:	1009883a 	mov	r4,r2
 4082260:	408241c0 	call	408241c <__udivsi3>
 4082264:	1007883a 	mov	r3,r2
 4082268:	e0bfd017 	ldw	r2,-192(fp)
 408226c:	10fdc536 	bltu	r2,r3,4081984 <__alt_mem_dma_read_memory+0xfff80984>

	printf ("(PE)Calculating...\n");
	time_begin_pe = perf_get_total_time  ((void*)PERFORMANCE_COUNTER_0_BASE);
	PERF_START_MEASURING(PERFORMANCE_COUNTER_0_BASE);

	for(i = 0; i < m / Tile_m_size; i++){
 4082270:	e0bfcf17 	ldw	r2,-196(fp)
 4082274:	10800044 	addi	r2,r2,1
 4082278:	e0bfcf15 	stw	r2,-196(fp)
 408227c:	e0bfd917 	ldw	r2,-156(fp)
 4082280:	e17fde17 	ldw	r5,-136(fp)
 4082284:	1009883a 	mov	r4,r2
 4082288:	408241c0 	call	408241c <__udivsi3>
 408228c:	1007883a 	mov	r3,r2
 4082290:	e0bfcf17 	ldw	r2,-196(fp)
 4082294:	10fdb936 	bltu	r2,r3,408197c <__alt_mem_dma_read_memory+0xfff8097c>
				}
			}
		}
	}

	time_end_pe = perf_get_total_time  ((void*)PERFORMANCE_COUNTER_0_BASE);
 4082298:	01010434 	movhi	r4,1040
 408229c:	210c0004 	addi	r4,r4,12288
 40822a0:	409adfc0 	call	409adfc <perf_get_total_time>
 40822a4:	e0bfed15 	stw	r2,-76(fp)
 40822a8:	e0ffee15 	stw	r3,-72(fp)
	PERF_START_MEASURING(PERFORMANCE_COUNTER_0_BASE);
 40822ac:	0007883a 	mov	r3,zero
 40822b0:	00810434 	movhi	r2,1040
 40822b4:	108c0104 	addi	r2,r2,12292
 40822b8:	10c00035 	stwio	r3,0(r2)
	cycles_pe = time_end_pe - time_begin_pe;
 40822bc:	e13fed17 	ldw	r4,-76(fp)
 40822c0:	e17fee17 	ldw	r5,-72(fp)
 40822c4:	e1bfeb17 	ldw	r6,-84(fp)
 40822c8:	e1ffec17 	ldw	r7,-80(fp)
 40822cc:	2185c83a 	sub	r2,r4,r6
 40822d0:	2091803a 	cmpltu	r8,r4,r2
 40822d4:	29c7c83a 	sub	r3,r5,r7
 40822d8:	1a09c83a 	sub	r4,r3,r8
 40822dc:	2007883a 	mov	r3,r4
 40822e0:	e0bfef15 	stw	r2,-68(fp)
 40822e4:	e0fff015 	stw	r3,-64(fp)

	free(Tile_Weight);
 40822e8:	e13fe217 	ldw	r4,-120(fp)
 40822ec:	40843cc0 	call	40843cc <free>
	free(Tile_Output);
 40822f0:	e13fe117 	ldw	r4,-124(fp)
 40822f4:	40843cc0 	call	40843cc <free>
	free(Tile_Img2Col);
 40822f8:	e13fe317 	ldw	r4,-116(fp)
 40822fc:	40843cc0 	call	40843cc <free>
	free(Tile_Img2Col_Reduced);
 4082300:	e13fe417 	ldw	r4,-112(fp)
 4082304:	40843cc0 	call	40843cc <free>

    return 0;
 4082308:	0005883a 	mov	r2,zero
}
 408230c:	e6ffff04 	addi	sp,fp,-4
 4082310:	dfc00217 	ldw	ra,8(sp)
 4082314:	df000117 	ldw	fp,4(sp)
 4082318:	dc000017 	ldw	r16,0(sp)
 408231c:	dec00304 	addi	sp,sp,12
 4082320:	f800283a 	ret

04082324 <__divsi3>:
 4082324:	20001b16 	blt	r4,zero,4082394 <__divsi3+0x70>
 4082328:	000f883a 	mov	r7,zero
 408232c:	28001616 	blt	r5,zero,4082388 <__divsi3+0x64>
 4082330:	200d883a 	mov	r6,r4
 4082334:	29001a2e 	bgeu	r5,r4,40823a0 <__divsi3+0x7c>
 4082338:	00800804 	movi	r2,32
 408233c:	00c00044 	movi	r3,1
 4082340:	00000106 	br	4082348 <__divsi3+0x24>
 4082344:	10000d26 	beq	r2,zero,408237c <__divsi3+0x58>
 4082348:	294b883a 	add	r5,r5,r5
 408234c:	10bfffc4 	addi	r2,r2,-1
 4082350:	18c7883a 	add	r3,r3,r3
 4082354:	293ffb36 	bltu	r5,r4,4082344 <__alt_mem_dma_read_memory+0xfff81344>
 4082358:	0005883a 	mov	r2,zero
 408235c:	18000726 	beq	r3,zero,408237c <__divsi3+0x58>
 4082360:	0005883a 	mov	r2,zero
 4082364:	31400236 	bltu	r6,r5,4082370 <__divsi3+0x4c>
 4082368:	314dc83a 	sub	r6,r6,r5
 408236c:	10c4b03a 	or	r2,r2,r3
 4082370:	1806d07a 	srli	r3,r3,1
 4082374:	280ad07a 	srli	r5,r5,1
 4082378:	183ffa1e 	bne	r3,zero,4082364 <__alt_mem_dma_read_memory+0xfff81364>
 408237c:	38000126 	beq	r7,zero,4082384 <__divsi3+0x60>
 4082380:	0085c83a 	sub	r2,zero,r2
 4082384:	f800283a 	ret
 4082388:	014bc83a 	sub	r5,zero,r5
 408238c:	39c0005c 	xori	r7,r7,1
 4082390:	003fe706 	br	4082330 <__alt_mem_dma_read_memory+0xfff81330>
 4082394:	0109c83a 	sub	r4,zero,r4
 4082398:	01c00044 	movi	r7,1
 408239c:	003fe306 	br	408232c <__alt_mem_dma_read_memory+0xfff8132c>
 40823a0:	00c00044 	movi	r3,1
 40823a4:	003fee06 	br	4082360 <__alt_mem_dma_read_memory+0xfff81360>

040823a8 <__modsi3>:
 40823a8:	20001716 	blt	r4,zero,4082408 <__modsi3+0x60>
 40823ac:	000f883a 	mov	r7,zero
 40823b0:	2005883a 	mov	r2,r4
 40823b4:	28001216 	blt	r5,zero,4082400 <__modsi3+0x58>
 40823b8:	2900162e 	bgeu	r5,r4,4082414 <__modsi3+0x6c>
 40823bc:	01800804 	movi	r6,32
 40823c0:	00c00044 	movi	r3,1
 40823c4:	00000106 	br	40823cc <__modsi3+0x24>
 40823c8:	30000a26 	beq	r6,zero,40823f4 <__modsi3+0x4c>
 40823cc:	294b883a 	add	r5,r5,r5
 40823d0:	31bfffc4 	addi	r6,r6,-1
 40823d4:	18c7883a 	add	r3,r3,r3
 40823d8:	293ffb36 	bltu	r5,r4,40823c8 <__alt_mem_dma_read_memory+0xfff813c8>
 40823dc:	18000526 	beq	r3,zero,40823f4 <__modsi3+0x4c>
 40823e0:	1806d07a 	srli	r3,r3,1
 40823e4:	11400136 	bltu	r2,r5,40823ec <__modsi3+0x44>
 40823e8:	1145c83a 	sub	r2,r2,r5
 40823ec:	280ad07a 	srli	r5,r5,1
 40823f0:	183ffb1e 	bne	r3,zero,40823e0 <__alt_mem_dma_read_memory+0xfff813e0>
 40823f4:	38000126 	beq	r7,zero,40823fc <__modsi3+0x54>
 40823f8:	0085c83a 	sub	r2,zero,r2
 40823fc:	f800283a 	ret
 4082400:	014bc83a 	sub	r5,zero,r5
 4082404:	003fec06 	br	40823b8 <__alt_mem_dma_read_memory+0xfff813b8>
 4082408:	0109c83a 	sub	r4,zero,r4
 408240c:	01c00044 	movi	r7,1
 4082410:	003fe706 	br	40823b0 <__alt_mem_dma_read_memory+0xfff813b0>
 4082414:	00c00044 	movi	r3,1
 4082418:	003ff106 	br	40823e0 <__alt_mem_dma_read_memory+0xfff813e0>

0408241c <__udivsi3>:
 408241c:	200d883a 	mov	r6,r4
 4082420:	2900152e 	bgeu	r5,r4,4082478 <__udivsi3+0x5c>
 4082424:	28001416 	blt	r5,zero,4082478 <__udivsi3+0x5c>
 4082428:	00800804 	movi	r2,32
 408242c:	00c00044 	movi	r3,1
 4082430:	00000206 	br	408243c <__udivsi3+0x20>
 4082434:	10000e26 	beq	r2,zero,4082470 <__udivsi3+0x54>
 4082438:	28000516 	blt	r5,zero,4082450 <__udivsi3+0x34>
 408243c:	294b883a 	add	r5,r5,r5
 4082440:	10bfffc4 	addi	r2,r2,-1
 4082444:	18c7883a 	add	r3,r3,r3
 4082448:	293ffa36 	bltu	r5,r4,4082434 <__alt_mem_dma_read_memory+0xfff81434>
 408244c:	18000826 	beq	r3,zero,4082470 <__udivsi3+0x54>
 4082450:	0005883a 	mov	r2,zero
 4082454:	31400236 	bltu	r6,r5,4082460 <__udivsi3+0x44>
 4082458:	314dc83a 	sub	r6,r6,r5
 408245c:	10c4b03a 	or	r2,r2,r3
 4082460:	1806d07a 	srli	r3,r3,1
 4082464:	280ad07a 	srli	r5,r5,1
 4082468:	183ffa1e 	bne	r3,zero,4082454 <__alt_mem_dma_read_memory+0xfff81454>
 408246c:	f800283a 	ret
 4082470:	0005883a 	mov	r2,zero
 4082474:	f800283a 	ret
 4082478:	00c00044 	movi	r3,1
 408247c:	003ff406 	br	4082450 <__alt_mem_dma_read_memory+0xfff81450>

04082480 <__umodsi3>:
 4082480:	2005883a 	mov	r2,r4
 4082484:	2900122e 	bgeu	r5,r4,40824d0 <__umodsi3+0x50>
 4082488:	28001116 	blt	r5,zero,40824d0 <__umodsi3+0x50>
 408248c:	01800804 	movi	r6,32
 4082490:	00c00044 	movi	r3,1
 4082494:	00000206 	br	40824a0 <__umodsi3+0x20>
 4082498:	30000c26 	beq	r6,zero,40824cc <__umodsi3+0x4c>
 408249c:	28000516 	blt	r5,zero,40824b4 <__umodsi3+0x34>
 40824a0:	294b883a 	add	r5,r5,r5
 40824a4:	31bfffc4 	addi	r6,r6,-1
 40824a8:	18c7883a 	add	r3,r3,r3
 40824ac:	293ffa36 	bltu	r5,r4,4082498 <__alt_mem_dma_read_memory+0xfff81498>
 40824b0:	18000626 	beq	r3,zero,40824cc <__umodsi3+0x4c>
 40824b4:	1806d07a 	srli	r3,r3,1
 40824b8:	11400136 	bltu	r2,r5,40824c0 <__umodsi3+0x40>
 40824bc:	1145c83a 	sub	r2,r2,r5
 40824c0:	280ad07a 	srli	r5,r5,1
 40824c4:	183ffb1e 	bne	r3,zero,40824b4 <__alt_mem_dma_read_memory+0xfff814b4>
 40824c8:	f800283a 	ret
 40824cc:	f800283a 	ret
 40824d0:	00c00044 	movi	r3,1
 40824d4:	003ff706 	br	40824b4 <__alt_mem_dma_read_memory+0xfff814b4>

040824d8 <__addsf3>:
 40824d8:	defffc04 	addi	sp,sp,-16
 40824dc:	2004d7fa 	srli	r2,r4,31
 40824e0:	280cd5fa 	srli	r6,r5,23
 40824e4:	dc000015 	stw	r16,0(sp)
 40824e8:	00c02034 	movhi	r3,128
 40824ec:	2020d5fa 	srli	r16,r4,23
 40824f0:	280ed7fa 	srli	r7,r5,31
 40824f4:	18ffffc4 	addi	r3,r3,-1
 40824f8:	dc400115 	stw	r17,4(sp)
 40824fc:	1908703a 	and	r4,r3,r4
 4082500:	194a703a 	and	r5,r3,r5
 4082504:	dfc00315 	stw	ra,12(sp)
 4082508:	dc800215 	stw	r18,8(sp)
 408250c:	14403fcc 	andi	r17,r2,255
 4082510:	84003fcc 	andi	r16,r16,255
 4082514:	200890fa 	slli	r4,r4,3
 4082518:	31803fcc 	andi	r6,r6,255
 408251c:	280a90fa 	slli	r5,r5,3
 4082520:	89c05026 	beq	r17,r7,4082664 <__addsf3+0x18c>
 4082524:	8185c83a 	sub	r2,r16,r6
 4082528:	00807a0e 	bge	zero,r2,4082714 <__addsf3+0x23c>
 408252c:	30001e1e 	bne	r6,zero,40825a8 <__addsf3+0xd0>
 4082530:	28006d1e 	bne	r5,zero,40826e8 <__addsf3+0x210>
 4082534:	208001cc 	andi	r2,r4,7
 4082538:	10000426 	beq	r2,zero,408254c <__addsf3+0x74>
 408253c:	208003cc 	andi	r2,r4,15
 4082540:	00c00104 	movi	r3,4
 4082544:	10c00126 	beq	r2,r3,408254c <__addsf3+0x74>
 4082548:	20c9883a 	add	r4,r4,r3
 408254c:	2081002c 	andhi	r2,r4,1024
 4082550:	10003926 	beq	r2,zero,4082638 <__addsf3+0x160>
 4082554:	84000044 	addi	r16,r16,1
 4082558:	00803fc4 	movi	r2,255
 408255c:	80807826 	beq	r16,r2,4082740 <__addsf3+0x268>
 4082560:	200891ba 	slli	r4,r4,6
 4082564:	8805883a 	mov	r2,r17
 4082568:	2008d27a 	srli	r4,r4,9
 408256c:	84003fcc 	andi	r16,r16,255
 4082570:	800695fa 	slli	r3,r16,23
 4082574:	10803fcc 	andi	r2,r2,255
 4082578:	04002034 	movhi	r16,128
 408257c:	843fffc4 	addi	r16,r16,-1
 4082580:	100497fa 	slli	r2,r2,31
 4082584:	2408703a 	and	r4,r4,r16
 4082588:	20e0b03a 	or	r16,r4,r3
 408258c:	8084b03a 	or	r2,r16,r2
 4082590:	dfc00317 	ldw	ra,12(sp)
 4082594:	dc800217 	ldw	r18,8(sp)
 4082598:	dc400117 	ldw	r17,4(sp)
 408259c:	dc000017 	ldw	r16,0(sp)
 40825a0:	dec00404 	addi	sp,sp,16
 40825a4:	f800283a 	ret
 40825a8:	00c03fc4 	movi	r3,255
 40825ac:	80ffe126 	beq	r16,r3,4082534 <__alt_mem_dma_read_memory+0xfff81534>
 40825b0:	29410034 	orhi	r5,r5,1024
 40825b4:	00c006c4 	movi	r3,27
 40825b8:	18807516 	blt	r3,r2,4082790 <__addsf3+0x2b8>
 40825bc:	00c00804 	movi	r3,32
 40825c0:	1887c83a 	sub	r3,r3,r2
 40825c4:	28c6983a 	sll	r3,r5,r3
 40825c8:	288ad83a 	srl	r5,r5,r2
 40825cc:	1804c03a 	cmpne	r2,r3,zero
 40825d0:	288ab03a 	or	r5,r5,r2
 40825d4:	2149c83a 	sub	r4,r4,r5
 40825d8:	2081002c 	andhi	r2,r4,1024
 40825dc:	10001426 	beq	r2,zero,4082630 <__addsf3+0x158>
 40825e0:	04810034 	movhi	r18,1024
 40825e4:	94bfffc4 	addi	r18,r18,-1
 40825e8:	24a4703a 	and	r18,r4,r18
 40825ec:	9009883a 	mov	r4,r18
 40825f0:	4082e140 	call	4082e14 <__clzsi2>
 40825f4:	10bffec4 	addi	r2,r2,-5
 40825f8:	90a4983a 	sll	r18,r18,r2
 40825fc:	14005416 	blt	r2,r16,4082750 <__addsf3+0x278>
 4082600:	1405c83a 	sub	r2,r2,r16
 4082604:	11000044 	addi	r4,r2,1
 4082608:	00800804 	movi	r2,32
 408260c:	1105c83a 	sub	r2,r2,r4
 4082610:	9084983a 	sll	r2,r18,r2
 4082614:	9124d83a 	srl	r18,r18,r4
 4082618:	0021883a 	mov	r16,zero
 408261c:	1008c03a 	cmpne	r4,r2,zero
 4082620:	9108b03a 	or	r4,r18,r4
 4082624:	003fc306 	br	4082534 <__alt_mem_dma_read_memory+0xfff81534>
 4082628:	1000db26 	beq	r2,zero,4082998 <__addsf3+0x4c0>
 408262c:	1009883a 	mov	r4,r2
 4082630:	208001cc 	andi	r2,r4,7
 4082634:	103fc11e 	bne	r2,zero,408253c <__alt_mem_dma_read_memory+0xfff8153c>
 4082638:	2006d0fa 	srli	r3,r4,3
 408263c:	01003fc4 	movi	r4,255
 4082640:	8805883a 	mov	r2,r17
 4082644:	8100241e 	bne	r16,r4,40826d8 <__addsf3+0x200>
 4082648:	18006e26 	beq	r3,zero,4082804 <__addsf3+0x32c>
 408264c:	19001034 	orhi	r4,r3,64
 4082650:	00c02034 	movhi	r3,128
 4082654:	18ffffc4 	addi	r3,r3,-1
 4082658:	043fffc4 	movi	r16,-1
 408265c:	20c8703a 	and	r4,r4,r3
 4082660:	003fc206 	br	408256c <__alt_mem_dma_read_memory+0xfff8156c>
 4082664:	8187c83a 	sub	r3,r16,r6
 4082668:	00c03e0e 	bge	zero,r3,4082764 <__addsf3+0x28c>
 408266c:	30002326 	beq	r6,zero,40826fc <__addsf3+0x224>
 4082670:	01803fc4 	movi	r6,255
 4082674:	81bfaf26 	beq	r16,r6,4082534 <__alt_mem_dma_read_memory+0xfff81534>
 4082678:	29410034 	orhi	r5,r5,1024
 408267c:	018006c4 	movi	r6,27
 4082680:	30c07416 	blt	r6,r3,4082854 <__addsf3+0x37c>
 4082684:	01800804 	movi	r6,32
 4082688:	30cdc83a 	sub	r6,r6,r3
 408268c:	298c983a 	sll	r6,r5,r6
 4082690:	28cad83a 	srl	r5,r5,r3
 4082694:	3006c03a 	cmpne	r3,r6,zero
 4082698:	28cab03a 	or	r5,r5,r3
 408269c:	2149883a 	add	r4,r4,r5
 40826a0:	20c1002c 	andhi	r3,r4,1024
 40826a4:	183fe226 	beq	r3,zero,4082630 <__alt_mem_dma_read_memory+0xfff81630>
 40826a8:	84000044 	addi	r16,r16,1
 40826ac:	00c03fc4 	movi	r3,255
 40826b0:	80c05426 	beq	r16,r3,4082804 <__addsf3+0x32c>
 40826b4:	00bf0034 	movhi	r2,64512
 40826b8:	10bfffc4 	addi	r2,r2,-1
 40826bc:	20c0004c 	andi	r3,r4,1
 40826c0:	2088703a 	and	r4,r4,r2
 40826c4:	2008d07a 	srli	r4,r4,1
 40826c8:	20c8b03a 	or	r4,r4,r3
 40826cc:	003f9906 	br	4082534 <__alt_mem_dma_read_memory+0xfff81534>
 40826d0:	0007883a 	mov	r3,zero
 40826d4:	0005883a 	mov	r2,zero
 40826d8:	01002034 	movhi	r4,128
 40826dc:	213fffc4 	addi	r4,r4,-1
 40826e0:	1908703a 	and	r4,r3,r4
 40826e4:	003fa106 	br	408256c <__alt_mem_dma_read_memory+0xfff8156c>
 40826e8:	10bfffc4 	addi	r2,r2,-1
 40826ec:	103fb926 	beq	r2,zero,40825d4 <__alt_mem_dma_read_memory+0xfff815d4>
 40826f0:	00c03fc4 	movi	r3,255
 40826f4:	80ffaf1e 	bne	r16,r3,40825b4 <__alt_mem_dma_read_memory+0xfff815b4>
 40826f8:	003f8e06 	br	4082534 <__alt_mem_dma_read_memory+0xfff81534>
 40826fc:	283f8d26 	beq	r5,zero,4082534 <__alt_mem_dma_read_memory+0xfff81534>
 4082700:	18ffffc4 	addi	r3,r3,-1
 4082704:	183fe526 	beq	r3,zero,408269c <__alt_mem_dma_read_memory+0xfff8169c>
 4082708:	01803fc4 	movi	r6,255
 408270c:	81bfdb1e 	bne	r16,r6,408267c <__alt_mem_dma_read_memory+0xfff8167c>
 4082710:	003f8806 	br	4082534 <__alt_mem_dma_read_memory+0xfff81534>
 4082714:	1000201e 	bne	r2,zero,4082798 <__addsf3+0x2c0>
 4082718:	80800044 	addi	r2,r16,1
 408271c:	10803fcc 	andi	r2,r2,255
 4082720:	01800044 	movi	r6,1
 4082724:	3080450e 	bge	r6,r2,408283c <__addsf3+0x364>
 4082728:	2165c83a 	sub	r18,r4,r5
 408272c:	90c1002c 	andhi	r3,r18,1024
 4082730:	18002b26 	beq	r3,zero,40827e0 <__addsf3+0x308>
 4082734:	2925c83a 	sub	r18,r5,r4
 4082738:	3823883a 	mov	r17,r7
 408273c:	003fab06 	br	40825ec <__alt_mem_dma_read_memory+0xfff815ec>
 4082740:	8805883a 	mov	r2,r17
 4082744:	043fffc4 	movi	r16,-1
 4082748:	0009883a 	mov	r4,zero
 408274c:	003f8706 	br	408256c <__alt_mem_dma_read_memory+0xfff8156c>
 4082750:	013f0034 	movhi	r4,64512
 4082754:	213fffc4 	addi	r4,r4,-1
 4082758:	80a1c83a 	sub	r16,r16,r2
 408275c:	9108703a 	and	r4,r18,r4
 4082760:	003f7406 	br	4082534 <__alt_mem_dma_read_memory+0xfff81534>
 4082764:	1800411e 	bne	r3,zero,408286c <__addsf3+0x394>
 4082768:	80c00044 	addi	r3,r16,1
 408276c:	19c03fcc 	andi	r7,r3,255
 4082770:	01800044 	movi	r6,1
 4082774:	31c0260e 	bge	r6,r7,4082810 <__addsf3+0x338>
 4082778:	01803fc4 	movi	r6,255
 408277c:	19802126 	beq	r3,r6,4082804 <__addsf3+0x32c>
 4082780:	2149883a 	add	r4,r4,r5
 4082784:	2008d07a 	srli	r4,r4,1
 4082788:	1821883a 	mov	r16,r3
 408278c:	003f6906 	br	4082534 <__alt_mem_dma_read_memory+0xfff81534>
 4082790:	01400044 	movi	r5,1
 4082794:	003f8f06 	br	40825d4 <__alt_mem_dma_read_memory+0xfff815d4>
 4082798:	8000151e 	bne	r16,zero,40827f0 <__addsf3+0x318>
 408279c:	20002f26 	beq	r4,zero,408285c <__addsf3+0x384>
 40827a0:	0084303a 	nor	r2,zero,r2
 40827a4:	10000a26 	beq	r2,zero,40827d0 <__addsf3+0x2f8>
 40827a8:	00c03fc4 	movi	r3,255
 40827ac:	30c02b26 	beq	r6,r3,408285c <__addsf3+0x384>
 40827b0:	00c006c4 	movi	r3,27
 40827b4:	18806d16 	blt	r3,r2,408296c <__addsf3+0x494>
 40827b8:	00c00804 	movi	r3,32
 40827bc:	1887c83a 	sub	r3,r3,r2
 40827c0:	20c6983a 	sll	r3,r4,r3
 40827c4:	2084d83a 	srl	r2,r4,r2
 40827c8:	1808c03a 	cmpne	r4,r3,zero
 40827cc:	1108b03a 	or	r4,r2,r4
 40827d0:	2909c83a 	sub	r4,r5,r4
 40827d4:	3021883a 	mov	r16,r6
 40827d8:	3823883a 	mov	r17,r7
 40827dc:	003f7e06 	br	40825d8 <__alt_mem_dma_read_memory+0xfff815d8>
 40827e0:	903f821e 	bne	r18,zero,40825ec <__alt_mem_dma_read_memory+0xfff815ec>
 40827e4:	0005883a 	mov	r2,zero
 40827e8:	0021883a 	mov	r16,zero
 40827ec:	003fba06 	br	40826d8 <__alt_mem_dma_read_memory+0xfff816d8>
 40827f0:	00c03fc4 	movi	r3,255
 40827f4:	30c01926 	beq	r6,r3,408285c <__addsf3+0x384>
 40827f8:	0085c83a 	sub	r2,zero,r2
 40827fc:	21010034 	orhi	r4,r4,1024
 4082800:	003feb06 	br	40827b0 <__alt_mem_dma_read_memory+0xfff817b0>
 4082804:	043fffc4 	movi	r16,-1
 4082808:	0009883a 	mov	r4,zero
 408280c:	003f5706 	br	408256c <__alt_mem_dma_read_memory+0xfff8156c>
 4082810:	80004a1e 	bne	r16,zero,408293c <__addsf3+0x464>
 4082814:	20005926 	beq	r4,zero,408297c <__addsf3+0x4a4>
 4082818:	283f4626 	beq	r5,zero,4082534 <__alt_mem_dma_read_memory+0xfff81534>
 408281c:	2149883a 	add	r4,r4,r5
 4082820:	2081002c 	andhi	r2,r4,1024
 4082824:	103f8226 	beq	r2,zero,4082630 <__alt_mem_dma_read_memory+0xfff81630>
 4082828:	00bf0034 	movhi	r2,64512
 408282c:	10bfffc4 	addi	r2,r2,-1
 4082830:	3021883a 	mov	r16,r6
 4082834:	2088703a 	and	r4,r4,r2
 4082838:	003f3e06 	br	4082534 <__alt_mem_dma_read_memory+0xfff81534>
 408283c:	8000121e 	bne	r16,zero,4082888 <__addsf3+0x3b0>
 4082840:	2000261e 	bne	r4,zero,40828dc <__addsf3+0x404>
 4082844:	283fa226 	beq	r5,zero,40826d0 <__alt_mem_dma_read_memory+0xfff816d0>
 4082848:	2809883a 	mov	r4,r5
 408284c:	3823883a 	mov	r17,r7
 4082850:	003f3806 	br	4082534 <__alt_mem_dma_read_memory+0xfff81534>
 4082854:	01400044 	movi	r5,1
 4082858:	003f9006 	br	408269c <__alt_mem_dma_read_memory+0xfff8169c>
 408285c:	2809883a 	mov	r4,r5
 4082860:	3021883a 	mov	r16,r6
 4082864:	3823883a 	mov	r17,r7
 4082868:	003f3206 	br	4082534 <__alt_mem_dma_read_memory+0xfff81534>
 408286c:	80000c1e 	bne	r16,zero,40828a0 <__addsf3+0x3c8>
 4082870:	20002f26 	beq	r4,zero,4082930 <__addsf3+0x458>
 4082874:	00c6303a 	nor	r3,zero,r3
 4082878:	18002b1e 	bne	r3,zero,4082928 <__addsf3+0x450>
 408287c:	2149883a 	add	r4,r4,r5
 4082880:	3021883a 	mov	r16,r6
 4082884:	003f8606 	br	40826a0 <__alt_mem_dma_read_memory+0xfff816a0>
 4082888:	20001b1e 	bne	r4,zero,40828f8 <__addsf3+0x420>
 408288c:	28003926 	beq	r5,zero,4082974 <__addsf3+0x49c>
 4082890:	2809883a 	mov	r4,r5
 4082894:	3823883a 	mov	r17,r7
 4082898:	04003fc4 	movi	r16,255
 408289c:	003f2506 	br	4082534 <__alt_mem_dma_read_memory+0xfff81534>
 40828a0:	01c03fc4 	movi	r7,255
 40828a4:	31c02226 	beq	r6,r7,4082930 <__addsf3+0x458>
 40828a8:	00c7c83a 	sub	r3,zero,r3
 40828ac:	21010034 	orhi	r4,r4,1024
 40828b0:	01c006c4 	movi	r7,27
 40828b4:	38c03616 	blt	r7,r3,4082990 <__addsf3+0x4b8>
 40828b8:	01c00804 	movi	r7,32
 40828bc:	38cfc83a 	sub	r7,r7,r3
 40828c0:	21ce983a 	sll	r7,r4,r7
 40828c4:	20c6d83a 	srl	r3,r4,r3
 40828c8:	3808c03a 	cmpne	r4,r7,zero
 40828cc:	1906b03a 	or	r3,r3,r4
 40828d0:	1949883a 	add	r4,r3,r5
 40828d4:	3021883a 	mov	r16,r6
 40828d8:	003f7106 	br	40826a0 <__alt_mem_dma_read_memory+0xfff816a0>
 40828dc:	283f1526 	beq	r5,zero,4082534 <__alt_mem_dma_read_memory+0xfff81534>
 40828e0:	2145c83a 	sub	r2,r4,r5
 40828e4:	10c1002c 	andhi	r3,r2,1024
 40828e8:	183f4f26 	beq	r3,zero,4082628 <__alt_mem_dma_read_memory+0xfff81628>
 40828ec:	2909c83a 	sub	r4,r5,r4
 40828f0:	3823883a 	mov	r17,r7
 40828f4:	003f0f06 	br	4082534 <__alt_mem_dma_read_memory+0xfff81534>
 40828f8:	28001a26 	beq	r5,zero,4082964 <__addsf3+0x48c>
 40828fc:	2008d0fa 	srli	r4,r4,3
 4082900:	2080102c 	andhi	r2,r4,64
 4082904:	10000526 	beq	r2,zero,408291c <__addsf3+0x444>
 4082908:	280ad0fa 	srli	r5,r5,3
 408290c:	2880102c 	andhi	r2,r5,64
 4082910:	1000021e 	bne	r2,zero,408291c <__addsf3+0x444>
 4082914:	2809883a 	mov	r4,r5
 4082918:	3823883a 	mov	r17,r7
 408291c:	200890fa 	slli	r4,r4,3
 4082920:	04003fc4 	movi	r16,255
 4082924:	003f0306 	br	4082534 <__alt_mem_dma_read_memory+0xfff81534>
 4082928:	01c03fc4 	movi	r7,255
 408292c:	31ffe01e 	bne	r6,r7,40828b0 <__alt_mem_dma_read_memory+0xfff818b0>
 4082930:	2809883a 	mov	r4,r5
 4082934:	3021883a 	mov	r16,r6
 4082938:	003efe06 	br	4082534 <__alt_mem_dma_read_memory+0xfff81534>
 408293c:	20001126 	beq	r4,zero,4082984 <__addsf3+0x4ac>
 4082940:	28000826 	beq	r5,zero,4082964 <__addsf3+0x48c>
 4082944:	2008d0fa 	srli	r4,r4,3
 4082948:	2080102c 	andhi	r2,r4,64
 408294c:	103ff326 	beq	r2,zero,408291c <__alt_mem_dma_read_memory+0xfff8191c>
 4082950:	280ad0fa 	srli	r5,r5,3
 4082954:	2880102c 	andhi	r2,r5,64
 4082958:	103ff01e 	bne	r2,zero,408291c <__alt_mem_dma_read_memory+0xfff8191c>
 408295c:	2809883a 	mov	r4,r5
 4082960:	003fee06 	br	408291c <__alt_mem_dma_read_memory+0xfff8191c>
 4082964:	04003fc4 	movi	r16,255
 4082968:	003ef206 	br	4082534 <__alt_mem_dma_read_memory+0xfff81534>
 408296c:	01000044 	movi	r4,1
 4082970:	003f9706 	br	40827d0 <__alt_mem_dma_read_memory+0xfff817d0>
 4082974:	0005883a 	mov	r2,zero
 4082978:	003f3406 	br	408264c <__alt_mem_dma_read_memory+0xfff8164c>
 408297c:	2809883a 	mov	r4,r5
 4082980:	003eec06 	br	4082534 <__alt_mem_dma_read_memory+0xfff81534>
 4082984:	2809883a 	mov	r4,r5
 4082988:	04003fc4 	movi	r16,255
 408298c:	003ee906 	br	4082534 <__alt_mem_dma_read_memory+0xfff81534>
 4082990:	00c00044 	movi	r3,1
 4082994:	003fce06 	br	40828d0 <__alt_mem_dma_read_memory+0xfff818d0>
 4082998:	0005883a 	mov	r2,zero
 408299c:	003f4e06 	br	40826d8 <__alt_mem_dma_read_memory+0xfff816d8>

040829a0 <__eqsf2>:
 40829a0:	2006d5fa 	srli	r3,r4,23
 40829a4:	280cd5fa 	srli	r6,r5,23
 40829a8:	01c02034 	movhi	r7,128
 40829ac:	39ffffc4 	addi	r7,r7,-1
 40829b0:	18c03fcc 	andi	r3,r3,255
 40829b4:	02003fc4 	movi	r8,255
 40829b8:	3904703a 	and	r2,r7,r4
 40829bc:	31803fcc 	andi	r6,r6,255
 40829c0:	394e703a 	and	r7,r7,r5
 40829c4:	2008d7fa 	srli	r4,r4,31
 40829c8:	280ad7fa 	srli	r5,r5,31
 40829cc:	1a000d26 	beq	r3,r8,4082a04 <__eqsf2+0x64>
 40829d0:	02003fc4 	movi	r8,255
 40829d4:	32000826 	beq	r6,r8,40829f8 <__eqsf2+0x58>
 40829d8:	19800226 	beq	r3,r6,40829e4 <__eqsf2+0x44>
 40829dc:	00800044 	movi	r2,1
 40829e0:	f800283a 	ret
 40829e4:	11fffd1e 	bne	r2,r7,40829dc <__alt_mem_dma_read_memory+0xfff819dc>
 40829e8:	21400926 	beq	r4,r5,4082a10 <__eqsf2+0x70>
 40829ec:	183ffb1e 	bne	r3,zero,40829dc <__alt_mem_dma_read_memory+0xfff819dc>
 40829f0:	1004c03a 	cmpne	r2,r2,zero
 40829f4:	f800283a 	ret
 40829f8:	383ff726 	beq	r7,zero,40829d8 <__alt_mem_dma_read_memory+0xfff819d8>
 40829fc:	00800044 	movi	r2,1
 4082a00:	f800283a 	ret
 4082a04:	103ff226 	beq	r2,zero,40829d0 <__alt_mem_dma_read_memory+0xfff819d0>
 4082a08:	00800044 	movi	r2,1
 4082a0c:	f800283a 	ret
 4082a10:	0005883a 	mov	r2,zero
 4082a14:	f800283a 	ret

04082a18 <__mulsf3>:
 4082a18:	defff504 	addi	sp,sp,-44
 4082a1c:	dc000115 	stw	r16,4(sp)
 4082a20:	2020d5fa 	srli	r16,r4,23
 4082a24:	dd400615 	stw	r21,24(sp)
 4082a28:	202ad7fa 	srli	r21,r4,31
 4082a2c:	dc800315 	stw	r18,12(sp)
 4082a30:	04802034 	movhi	r18,128
 4082a34:	df000915 	stw	fp,36(sp)
 4082a38:	dd000515 	stw	r20,20(sp)
 4082a3c:	94bfffc4 	addi	r18,r18,-1
 4082a40:	dfc00a15 	stw	ra,40(sp)
 4082a44:	ddc00815 	stw	r23,32(sp)
 4082a48:	dd800715 	stw	r22,28(sp)
 4082a4c:	dcc00415 	stw	r19,16(sp)
 4082a50:	dc400215 	stw	r17,8(sp)
 4082a54:	84003fcc 	andi	r16,r16,255
 4082a58:	9124703a 	and	r18,r18,r4
 4082a5c:	a829883a 	mov	r20,r21
 4082a60:	af003fcc 	andi	fp,r21,255
 4082a64:	80005426 	beq	r16,zero,4082bb8 <__mulsf3+0x1a0>
 4082a68:	00803fc4 	movi	r2,255
 4082a6c:	80802f26 	beq	r16,r2,4082b2c <__mulsf3+0x114>
 4082a70:	91002034 	orhi	r4,r18,128
 4082a74:	202490fa 	slli	r18,r4,3
 4082a78:	843fe044 	addi	r16,r16,-127
 4082a7c:	0023883a 	mov	r17,zero
 4082a80:	002f883a 	mov	r23,zero
 4082a84:	2804d5fa 	srli	r2,r5,23
 4082a88:	282cd7fa 	srli	r22,r5,31
 4082a8c:	01002034 	movhi	r4,128
 4082a90:	213fffc4 	addi	r4,r4,-1
 4082a94:	10803fcc 	andi	r2,r2,255
 4082a98:	2166703a 	and	r19,r4,r5
 4082a9c:	b1803fcc 	andi	r6,r22,255
 4082aa0:	10004c26 	beq	r2,zero,4082bd4 <__mulsf3+0x1bc>
 4082aa4:	00c03fc4 	movi	r3,255
 4082aa8:	10c04726 	beq	r2,r3,4082bc8 <__mulsf3+0x1b0>
 4082aac:	99002034 	orhi	r4,r19,128
 4082ab0:	202690fa 	slli	r19,r4,3
 4082ab4:	10bfe044 	addi	r2,r2,-127
 4082ab8:	0007883a 	mov	r3,zero
 4082abc:	80a1883a 	add	r16,r16,r2
 4082ac0:	010003c4 	movi	r4,15
 4082ac4:	1c44b03a 	or	r2,r3,r17
 4082ac8:	b56af03a 	xor	r21,r22,r21
 4082acc:	81c00044 	addi	r7,r16,1
 4082ad0:	20806b36 	bltu	r4,r2,4082c80 <__mulsf3+0x268>
 4082ad4:	100490ba 	slli	r2,r2,2
 4082ad8:	01010234 	movhi	r4,1032
 4082adc:	210abb04 	addi	r4,r4,10988
 4082ae0:	1105883a 	add	r2,r2,r4
 4082ae4:	10800017 	ldw	r2,0(r2)
 4082ae8:	1000683a 	jmp	r2
 4082aec:	04082c80 	call	4082c8 <_gp+0x3fdf30>
 4082af0:	04082b40 	call	4082b4 <_gp+0x3fdf1c>
 4082af4:	04082b40 	call	4082b4 <_gp+0x3fdf1c>
 4082af8:	04082b3c 	xorhi	r16,zero,8364
 4082afc:	04082c64 	muli	r16,zero,8369
 4082b00:	04082c64 	muli	r16,zero,8369
 4082b04:	04082c50 	cmplti	r16,zero,8369
 4082b08:	04082b3c 	xorhi	r16,zero,8364
 4082b0c:	04082c64 	muli	r16,zero,8369
 4082b10:	04082c50 	cmplti	r16,zero,8369
 4082b14:	04082c64 	muli	r16,zero,8369
 4082b18:	04082b3c 	xorhi	r16,zero,8364
 4082b1c:	04082c70 	cmpltui	r16,zero,8369
 4082b20:	04082c70 	cmpltui	r16,zero,8369
 4082b24:	04082c70 	cmpltui	r16,zero,8369
 4082b28:	04082d4c 	andi	r16,zero,8373
 4082b2c:	90003b1e 	bne	r18,zero,4082c1c <__mulsf3+0x204>
 4082b30:	04400204 	movi	r17,8
 4082b34:	05c00084 	movi	r23,2
 4082b38:	003fd206 	br	4082a84 <__alt_mem_dma_read_memory+0xfff81a84>
 4082b3c:	302b883a 	mov	r21,r6
 4082b40:	00800084 	movi	r2,2
 4082b44:	18802626 	beq	r3,r2,4082be0 <__mulsf3+0x1c8>
 4082b48:	008000c4 	movi	r2,3
 4082b4c:	1880ab26 	beq	r3,r2,4082dfc <__mulsf3+0x3e4>
 4082b50:	00800044 	movi	r2,1
 4082b54:	1880a21e 	bne	r3,r2,4082de0 <__mulsf3+0x3c8>
 4082b58:	a829883a 	mov	r20,r21
 4082b5c:	0007883a 	mov	r3,zero
 4082b60:	0009883a 	mov	r4,zero
 4082b64:	18803fcc 	andi	r2,r3,255
 4082b68:	100695fa 	slli	r3,r2,23
 4082b6c:	a0803fcc 	andi	r2,r20,255
 4082b70:	100a97fa 	slli	r5,r2,31
 4082b74:	00802034 	movhi	r2,128
 4082b78:	10bfffc4 	addi	r2,r2,-1
 4082b7c:	2084703a 	and	r2,r4,r2
 4082b80:	10c4b03a 	or	r2,r2,r3
 4082b84:	1144b03a 	or	r2,r2,r5
 4082b88:	dfc00a17 	ldw	ra,40(sp)
 4082b8c:	df000917 	ldw	fp,36(sp)
 4082b90:	ddc00817 	ldw	r23,32(sp)
 4082b94:	dd800717 	ldw	r22,28(sp)
 4082b98:	dd400617 	ldw	r21,24(sp)
 4082b9c:	dd000517 	ldw	r20,20(sp)
 4082ba0:	dcc00417 	ldw	r19,16(sp)
 4082ba4:	dc800317 	ldw	r18,12(sp)
 4082ba8:	dc400217 	ldw	r17,8(sp)
 4082bac:	dc000117 	ldw	r16,4(sp)
 4082bb0:	dec00b04 	addi	sp,sp,44
 4082bb4:	f800283a 	ret
 4082bb8:	90000d1e 	bne	r18,zero,4082bf0 <__mulsf3+0x1d8>
 4082bbc:	04400104 	movi	r17,4
 4082bc0:	05c00044 	movi	r23,1
 4082bc4:	003faf06 	br	4082a84 <__alt_mem_dma_read_memory+0xfff81a84>
 4082bc8:	9806c03a 	cmpne	r3,r19,zero
 4082bcc:	18c00084 	addi	r3,r3,2
 4082bd0:	003fba06 	br	4082abc <__alt_mem_dma_read_memory+0xfff81abc>
 4082bd4:	9800141e 	bne	r19,zero,4082c28 <__mulsf3+0x210>
 4082bd8:	00c00044 	movi	r3,1
 4082bdc:	003fb706 	br	4082abc <__alt_mem_dma_read_memory+0xfff81abc>
 4082be0:	a829883a 	mov	r20,r21
 4082be4:	00ffffc4 	movi	r3,-1
 4082be8:	0009883a 	mov	r4,zero
 4082bec:	003fdd06 	br	4082b64 <__alt_mem_dma_read_memory+0xfff81b64>
 4082bf0:	9009883a 	mov	r4,r18
 4082bf4:	d9400015 	stw	r5,0(sp)
 4082bf8:	4082e140 	call	4082e14 <__clzsi2>
 4082bfc:	10fffec4 	addi	r3,r2,-5
 4082c00:	10801d84 	addi	r2,r2,118
 4082c04:	90e4983a 	sll	r18,r18,r3
 4082c08:	00a1c83a 	sub	r16,zero,r2
 4082c0c:	0023883a 	mov	r17,zero
 4082c10:	002f883a 	mov	r23,zero
 4082c14:	d9400017 	ldw	r5,0(sp)
 4082c18:	003f9a06 	br	4082a84 <__alt_mem_dma_read_memory+0xfff81a84>
 4082c1c:	04400304 	movi	r17,12
 4082c20:	05c000c4 	movi	r23,3
 4082c24:	003f9706 	br	4082a84 <__alt_mem_dma_read_memory+0xfff81a84>
 4082c28:	9809883a 	mov	r4,r19
 4082c2c:	d9800015 	stw	r6,0(sp)
 4082c30:	4082e140 	call	4082e14 <__clzsi2>
 4082c34:	10fffec4 	addi	r3,r2,-5
 4082c38:	10801d84 	addi	r2,r2,118
 4082c3c:	98e6983a 	sll	r19,r19,r3
 4082c40:	0085c83a 	sub	r2,zero,r2
 4082c44:	0007883a 	mov	r3,zero
 4082c48:	d9800017 	ldw	r6,0(sp)
 4082c4c:	003f9b06 	br	4082abc <__alt_mem_dma_read_memory+0xfff81abc>
 4082c50:	01002034 	movhi	r4,128
 4082c54:	0029883a 	mov	r20,zero
 4082c58:	213fffc4 	addi	r4,r4,-1
 4082c5c:	00ffffc4 	movi	r3,-1
 4082c60:	003fc006 	br	4082b64 <__alt_mem_dma_read_memory+0xfff81b64>
 4082c64:	9027883a 	mov	r19,r18
 4082c68:	b807883a 	mov	r3,r23
 4082c6c:	003fb406 	br	4082b40 <__alt_mem_dma_read_memory+0xfff81b40>
 4082c70:	9027883a 	mov	r19,r18
 4082c74:	e02b883a 	mov	r21,fp
 4082c78:	b807883a 	mov	r3,r23
 4082c7c:	003fb006 	br	4082b40 <__alt_mem_dma_read_memory+0xfff81b40>
 4082c80:	9004d43a 	srli	r2,r18,16
 4082c84:	9810d43a 	srli	r8,r19,16
 4082c88:	94bfffcc 	andi	r18,r18,65535
 4082c8c:	993fffcc 	andi	r4,r19,65535
 4082c90:	910d383a 	mul	r6,r18,r4
 4082c94:	20a7383a 	mul	r19,r4,r2
 4082c98:	9225383a 	mul	r18,r18,r8
 4082c9c:	3006d43a 	srli	r3,r6,16
 4082ca0:	1211383a 	mul	r8,r2,r8
 4082ca4:	94e5883a 	add	r18,r18,r19
 4082ca8:	1c87883a 	add	r3,r3,r18
 4082cac:	1cc0022e 	bgeu	r3,r19,4082cb8 <__mulsf3+0x2a0>
 4082cb0:	00800074 	movhi	r2,1
 4082cb4:	4091883a 	add	r8,r8,r2
 4082cb8:	1804943a 	slli	r2,r3,16
 4082cbc:	31bfffcc 	andi	r6,r6,65535
 4082cc0:	1806d43a 	srli	r3,r3,16
 4082cc4:	1185883a 	add	r2,r2,r6
 4082cc8:	102691ba 	slli	r19,r2,6
 4082ccc:	1a07883a 	add	r3,r3,r8
 4082cd0:	1004d6ba 	srli	r2,r2,26
 4082cd4:	180891ba 	slli	r4,r3,6
 4082cd8:	9826c03a 	cmpne	r19,r19,zero
 4082cdc:	9884b03a 	or	r2,r19,r2
 4082ce0:	1126b03a 	or	r19,r2,r4
 4082ce4:	9882002c 	andhi	r2,r19,2048
 4082ce8:	10000426 	beq	r2,zero,4082cfc <__mulsf3+0x2e4>
 4082cec:	9804d07a 	srli	r2,r19,1
 4082cf0:	9900004c 	andi	r4,r19,1
 4082cf4:	3821883a 	mov	r16,r7
 4082cf8:	1126b03a 	or	r19,r2,r4
 4082cfc:	80c01fc4 	addi	r3,r16,127
 4082d00:	00c0210e 	bge	zero,r3,4082d88 <__mulsf3+0x370>
 4082d04:	988001cc 	andi	r2,r19,7
 4082d08:	10000426 	beq	r2,zero,4082d1c <__mulsf3+0x304>
 4082d0c:	988003cc 	andi	r2,r19,15
 4082d10:	01000104 	movi	r4,4
 4082d14:	11000126 	beq	r2,r4,4082d1c <__mulsf3+0x304>
 4082d18:	9927883a 	add	r19,r19,r4
 4082d1c:	9882002c 	andhi	r2,r19,2048
 4082d20:	10000426 	beq	r2,zero,4082d34 <__mulsf3+0x31c>
 4082d24:	00be0034 	movhi	r2,63488
 4082d28:	10bfffc4 	addi	r2,r2,-1
 4082d2c:	80c02004 	addi	r3,r16,128
 4082d30:	98a6703a 	and	r19,r19,r2
 4082d34:	00803f84 	movi	r2,254
 4082d38:	10ffa916 	blt	r2,r3,4082be0 <__alt_mem_dma_read_memory+0xfff81be0>
 4082d3c:	980891ba 	slli	r4,r19,6
 4082d40:	a829883a 	mov	r20,r21
 4082d44:	2008d27a 	srli	r4,r4,9
 4082d48:	003f8606 	br	4082b64 <__alt_mem_dma_read_memory+0xfff81b64>
 4082d4c:	9080102c 	andhi	r2,r18,64
 4082d50:	10000826 	beq	r2,zero,4082d74 <__mulsf3+0x35c>
 4082d54:	9880102c 	andhi	r2,r19,64
 4082d58:	1000061e 	bne	r2,zero,4082d74 <__mulsf3+0x35c>
 4082d5c:	00802034 	movhi	r2,128
 4082d60:	99001034 	orhi	r4,r19,64
 4082d64:	10bfffc4 	addi	r2,r2,-1
 4082d68:	b029883a 	mov	r20,r22
 4082d6c:	2088703a 	and	r4,r4,r2
 4082d70:	003fba06 	br	4082c5c <__alt_mem_dma_read_memory+0xfff81c5c>
 4082d74:	00802034 	movhi	r2,128
 4082d78:	91001034 	orhi	r4,r18,64
 4082d7c:	10bfffc4 	addi	r2,r2,-1
 4082d80:	2088703a 	and	r4,r4,r2
 4082d84:	003fb506 	br	4082c5c <__alt_mem_dma_read_memory+0xfff81c5c>
 4082d88:	00800044 	movi	r2,1
 4082d8c:	10c7c83a 	sub	r3,r2,r3
 4082d90:	008006c4 	movi	r2,27
 4082d94:	10ff7016 	blt	r2,r3,4082b58 <__alt_mem_dma_read_memory+0xfff81b58>
 4082d98:	00800804 	movi	r2,32
 4082d9c:	10c5c83a 	sub	r2,r2,r3
 4082da0:	9884983a 	sll	r2,r19,r2
 4082da4:	98c6d83a 	srl	r3,r19,r3
 4082da8:	1004c03a 	cmpne	r2,r2,zero
 4082dac:	1884b03a 	or	r2,r3,r2
 4082db0:	10c001cc 	andi	r3,r2,7
 4082db4:	18000426 	beq	r3,zero,4082dc8 <__mulsf3+0x3b0>
 4082db8:	10c003cc 	andi	r3,r2,15
 4082dbc:	01000104 	movi	r4,4
 4082dc0:	19000126 	beq	r3,r4,4082dc8 <__mulsf3+0x3b0>
 4082dc4:	1105883a 	add	r2,r2,r4
 4082dc8:	10c1002c 	andhi	r3,r2,1024
 4082dcc:	18000626 	beq	r3,zero,4082de8 <__mulsf3+0x3d0>
 4082dd0:	a829883a 	mov	r20,r21
 4082dd4:	00c00044 	movi	r3,1
 4082dd8:	0009883a 	mov	r4,zero
 4082ddc:	003f6106 	br	4082b64 <__alt_mem_dma_read_memory+0xfff81b64>
 4082de0:	3821883a 	mov	r16,r7
 4082de4:	003fc506 	br	4082cfc <__alt_mem_dma_read_memory+0xfff81cfc>
 4082de8:	100491ba 	slli	r2,r2,6
 4082dec:	a829883a 	mov	r20,r21
 4082df0:	0007883a 	mov	r3,zero
 4082df4:	1008d27a 	srli	r4,r2,9
 4082df8:	003f5a06 	br	4082b64 <__alt_mem_dma_read_memory+0xfff81b64>
 4082dfc:	00802034 	movhi	r2,128
 4082e00:	99001034 	orhi	r4,r19,64
 4082e04:	10bfffc4 	addi	r2,r2,-1
 4082e08:	a829883a 	mov	r20,r21
 4082e0c:	2088703a 	and	r4,r4,r2
 4082e10:	003f9206 	br	4082c5c <__alt_mem_dma_read_memory+0xfff81c5c>

04082e14 <__clzsi2>:
 4082e14:	00bfffd4 	movui	r2,65535
 4082e18:	11000536 	bltu	r2,r4,4082e30 <__clzsi2+0x1c>
 4082e1c:	00803fc4 	movi	r2,255
 4082e20:	11000f36 	bltu	r2,r4,4082e60 <__clzsi2+0x4c>
 4082e24:	00800804 	movi	r2,32
 4082e28:	0007883a 	mov	r3,zero
 4082e2c:	00000506 	br	4082e44 <__clzsi2+0x30>
 4082e30:	00804034 	movhi	r2,256
 4082e34:	10bfffc4 	addi	r2,r2,-1
 4082e38:	11000c2e 	bgeu	r2,r4,4082e6c <__clzsi2+0x58>
 4082e3c:	00800204 	movi	r2,8
 4082e40:	00c00604 	movi	r3,24
 4082e44:	20c8d83a 	srl	r4,r4,r3
 4082e48:	00c00034 	movhi	r3,0
 4082e4c:	18c022c4 	addi	r3,r3,139
 4082e50:	1909883a 	add	r4,r3,r4
 4082e54:	20c00003 	ldbu	r3,0(r4)
 4082e58:	10c5c83a 	sub	r2,r2,r3
 4082e5c:	f800283a 	ret
 4082e60:	00800604 	movi	r2,24
 4082e64:	00c00204 	movi	r3,8
 4082e68:	003ff606 	br	4082e44 <__alt_mem_dma_read_memory+0xfff81e44>
 4082e6c:	00800404 	movi	r2,16
 4082e70:	1007883a 	mov	r3,r2
 4082e74:	003ff306 	br	4082e44 <__alt_mem_dma_read_memory+0xfff81e44>

04082e78 <exit>:
 4082e78:	defffe04 	addi	sp,sp,-8
 4082e7c:	000b883a 	mov	r5,zero
 4082e80:	dc000015 	stw	r16,0(sp)
 4082e84:	dfc00115 	stw	ra,4(sp)
 4082e88:	2021883a 	mov	r16,r4
 4082e8c:	40890300 	call	4089030 <__call_exitprocs>
 4082e90:	00800034 	movhi	r2,0
 4082e94:	1088e604 	addi	r2,r2,9112
 4082e98:	11000017 	ldw	r4,0(r2)
 4082e9c:	20800f17 	ldw	r2,60(r4)
 4082ea0:	10000126 	beq	r2,zero,4082ea8 <exit+0x30>
 4082ea4:	103ee83a 	callr	r2
 4082ea8:	8009883a 	mov	r4,r16
 4082eac:	4098b6c0 	call	4098b6c <_exit>

04082eb0 <_fclose_r>:
 4082eb0:	28003926 	beq	r5,zero,4082f98 <_fclose_r+0xe8>
 4082eb4:	defffc04 	addi	sp,sp,-16
 4082eb8:	dc400115 	stw	r17,4(sp)
 4082ebc:	dc000015 	stw	r16,0(sp)
 4082ec0:	dfc00315 	stw	ra,12(sp)
 4082ec4:	dc800215 	stw	r18,8(sp)
 4082ec8:	2023883a 	mov	r17,r4
 4082ecc:	2821883a 	mov	r16,r5
 4082ed0:	20000226 	beq	r4,zero,4082edc <_fclose_r+0x2c>
 4082ed4:	20800e17 	ldw	r2,56(r4)
 4082ed8:	10002726 	beq	r2,zero,4082f78 <_fclose_r+0xc8>
 4082edc:	8080030f 	ldh	r2,12(r16)
 4082ee0:	1000071e 	bne	r2,zero,4082f00 <_fclose_r+0x50>
 4082ee4:	0005883a 	mov	r2,zero
 4082ee8:	dfc00317 	ldw	ra,12(sp)
 4082eec:	dc800217 	ldw	r18,8(sp)
 4082ef0:	dc400117 	ldw	r17,4(sp)
 4082ef4:	dc000017 	ldw	r16,0(sp)
 4082ef8:	dec00404 	addi	sp,sp,16
 4082efc:	f800283a 	ret
 4082f00:	800b883a 	mov	r5,r16
 4082f04:	8809883a 	mov	r4,r17
 4082f08:	4082fb40 	call	4082fb4 <__sflush_r>
 4082f0c:	1025883a 	mov	r18,r2
 4082f10:	80800b17 	ldw	r2,44(r16)
 4082f14:	10000426 	beq	r2,zero,4082f28 <_fclose_r+0x78>
 4082f18:	81400717 	ldw	r5,28(r16)
 4082f1c:	8809883a 	mov	r4,r17
 4082f20:	103ee83a 	callr	r2
 4082f24:	10001616 	blt	r2,zero,4082f80 <_fclose_r+0xd0>
 4082f28:	8080030b 	ldhu	r2,12(r16)
 4082f2c:	1080200c 	andi	r2,r2,128
 4082f30:	1000151e 	bne	r2,zero,4082f88 <_fclose_r+0xd8>
 4082f34:	81400c17 	ldw	r5,48(r16)
 4082f38:	28000526 	beq	r5,zero,4082f50 <_fclose_r+0xa0>
 4082f3c:	80801004 	addi	r2,r16,64
 4082f40:	28800226 	beq	r5,r2,4082f4c <_fclose_r+0x9c>
 4082f44:	8809883a 	mov	r4,r17
 4082f48:	408382c0 	call	408382c <_free_r>
 4082f4c:	80000c15 	stw	zero,48(r16)
 4082f50:	81401117 	ldw	r5,68(r16)
 4082f54:	28000326 	beq	r5,zero,4082f64 <_fclose_r+0xb4>
 4082f58:	8809883a 	mov	r4,r17
 4082f5c:	408382c0 	call	408382c <_free_r>
 4082f60:	80001115 	stw	zero,68(r16)
 4082f64:	40835bc0 	call	40835bc <__sfp_lock_acquire>
 4082f68:	8000030d 	sth	zero,12(r16)
 4082f6c:	40835c00 	call	40835c0 <__sfp_lock_release>
 4082f70:	9005883a 	mov	r2,r18
 4082f74:	003fdc06 	br	4082ee8 <__alt_mem_dma_read_memory+0xfff81ee8>
 4082f78:	40835ac0 	call	40835ac <__sinit>
 4082f7c:	003fd706 	br	4082edc <__alt_mem_dma_read_memory+0xfff81edc>
 4082f80:	04bfffc4 	movi	r18,-1
 4082f84:	003fe806 	br	4082f28 <__alt_mem_dma_read_memory+0xfff81f28>
 4082f88:	81400417 	ldw	r5,16(r16)
 4082f8c:	8809883a 	mov	r4,r17
 4082f90:	408382c0 	call	408382c <_free_r>
 4082f94:	003fe706 	br	4082f34 <__alt_mem_dma_read_memory+0xfff81f34>
 4082f98:	0005883a 	mov	r2,zero
 4082f9c:	f800283a 	ret

04082fa0 <fclose>:
 4082fa0:	00800034 	movhi	r2,0
 4082fa4:	1088e704 	addi	r2,r2,9116
 4082fa8:	200b883a 	mov	r5,r4
 4082fac:	11000017 	ldw	r4,0(r2)
 4082fb0:	4082eb01 	jmpi	4082eb0 <_fclose_r>

04082fb4 <__sflush_r>:
 4082fb4:	2880030b 	ldhu	r2,12(r5)
 4082fb8:	defffb04 	addi	sp,sp,-20
 4082fbc:	dcc00315 	stw	r19,12(sp)
 4082fc0:	dc400115 	stw	r17,4(sp)
 4082fc4:	dfc00415 	stw	ra,16(sp)
 4082fc8:	dc800215 	stw	r18,8(sp)
 4082fcc:	dc000015 	stw	r16,0(sp)
 4082fd0:	10c0020c 	andi	r3,r2,8
 4082fd4:	2823883a 	mov	r17,r5
 4082fd8:	2027883a 	mov	r19,r4
 4082fdc:	1800311e 	bne	r3,zero,40830a4 <__sflush_r+0xf0>
 4082fe0:	28c00117 	ldw	r3,4(r5)
 4082fe4:	10820014 	ori	r2,r2,2048
 4082fe8:	2880030d 	sth	r2,12(r5)
 4082fec:	00c04b0e 	bge	zero,r3,408311c <__sflush_r+0x168>
 4082ff0:	8a000a17 	ldw	r8,40(r17)
 4082ff4:	40002326 	beq	r8,zero,4083084 <__sflush_r+0xd0>
 4082ff8:	9c000017 	ldw	r16,0(r19)
 4082ffc:	10c4000c 	andi	r3,r2,4096
 4083000:	98000015 	stw	zero,0(r19)
 4083004:	18004826 	beq	r3,zero,4083128 <__sflush_r+0x174>
 4083008:	89801417 	ldw	r6,80(r17)
 408300c:	10c0010c 	andi	r3,r2,4
 4083010:	18000626 	beq	r3,zero,408302c <__sflush_r+0x78>
 4083014:	88c00117 	ldw	r3,4(r17)
 4083018:	88800c17 	ldw	r2,48(r17)
 408301c:	30cdc83a 	sub	r6,r6,r3
 4083020:	10000226 	beq	r2,zero,408302c <__sflush_r+0x78>
 4083024:	88800f17 	ldw	r2,60(r17)
 4083028:	308dc83a 	sub	r6,r6,r2
 408302c:	89400717 	ldw	r5,28(r17)
 4083030:	000f883a 	mov	r7,zero
 4083034:	9809883a 	mov	r4,r19
 4083038:	403ee83a 	callr	r8
 408303c:	00ffffc4 	movi	r3,-1
 4083040:	10c04426 	beq	r2,r3,4083154 <__sflush_r+0x1a0>
 4083044:	88c0030b 	ldhu	r3,12(r17)
 4083048:	89000417 	ldw	r4,16(r17)
 408304c:	88000115 	stw	zero,4(r17)
 4083050:	197dffcc 	andi	r5,r3,63487
 4083054:	8940030d 	sth	r5,12(r17)
 4083058:	89000015 	stw	r4,0(r17)
 408305c:	18c4000c 	andi	r3,r3,4096
 4083060:	18002c1e 	bne	r3,zero,4083114 <__sflush_r+0x160>
 4083064:	89400c17 	ldw	r5,48(r17)
 4083068:	9c000015 	stw	r16,0(r19)
 408306c:	28000526 	beq	r5,zero,4083084 <__sflush_r+0xd0>
 4083070:	88801004 	addi	r2,r17,64
 4083074:	28800226 	beq	r5,r2,4083080 <__sflush_r+0xcc>
 4083078:	9809883a 	mov	r4,r19
 408307c:	408382c0 	call	408382c <_free_r>
 4083080:	88000c15 	stw	zero,48(r17)
 4083084:	0005883a 	mov	r2,zero
 4083088:	dfc00417 	ldw	ra,16(sp)
 408308c:	dcc00317 	ldw	r19,12(sp)
 4083090:	dc800217 	ldw	r18,8(sp)
 4083094:	dc400117 	ldw	r17,4(sp)
 4083098:	dc000017 	ldw	r16,0(sp)
 408309c:	dec00504 	addi	sp,sp,20
 40830a0:	f800283a 	ret
 40830a4:	2c800417 	ldw	r18,16(r5)
 40830a8:	903ff626 	beq	r18,zero,4083084 <__alt_mem_dma_read_memory+0xfff82084>
 40830ac:	2c000017 	ldw	r16,0(r5)
 40830b0:	108000cc 	andi	r2,r2,3
 40830b4:	2c800015 	stw	r18,0(r5)
 40830b8:	84a1c83a 	sub	r16,r16,r18
 40830bc:	1000131e 	bne	r2,zero,408310c <__sflush_r+0x158>
 40830c0:	28800517 	ldw	r2,20(r5)
 40830c4:	88800215 	stw	r2,8(r17)
 40830c8:	04000316 	blt	zero,r16,40830d8 <__sflush_r+0x124>
 40830cc:	003fed06 	br	4083084 <__alt_mem_dma_read_memory+0xfff82084>
 40830d0:	90a5883a 	add	r18,r18,r2
 40830d4:	043feb0e 	bge	zero,r16,4083084 <__alt_mem_dma_read_memory+0xfff82084>
 40830d8:	88800917 	ldw	r2,36(r17)
 40830dc:	89400717 	ldw	r5,28(r17)
 40830e0:	800f883a 	mov	r7,r16
 40830e4:	900d883a 	mov	r6,r18
 40830e8:	9809883a 	mov	r4,r19
 40830ec:	103ee83a 	callr	r2
 40830f0:	80a1c83a 	sub	r16,r16,r2
 40830f4:	00bff616 	blt	zero,r2,40830d0 <__alt_mem_dma_read_memory+0xfff820d0>
 40830f8:	88c0030b 	ldhu	r3,12(r17)
 40830fc:	00bfffc4 	movi	r2,-1
 4083100:	18c01014 	ori	r3,r3,64
 4083104:	88c0030d 	sth	r3,12(r17)
 4083108:	003fdf06 	br	4083088 <__alt_mem_dma_read_memory+0xfff82088>
 408310c:	0005883a 	mov	r2,zero
 4083110:	003fec06 	br	40830c4 <__alt_mem_dma_read_memory+0xfff820c4>
 4083114:	88801415 	stw	r2,80(r17)
 4083118:	003fd206 	br	4083064 <__alt_mem_dma_read_memory+0xfff82064>
 408311c:	28c00f17 	ldw	r3,60(r5)
 4083120:	00ffb316 	blt	zero,r3,4082ff0 <__alt_mem_dma_read_memory+0xfff81ff0>
 4083124:	003fd706 	br	4083084 <__alt_mem_dma_read_memory+0xfff82084>
 4083128:	89400717 	ldw	r5,28(r17)
 408312c:	000d883a 	mov	r6,zero
 4083130:	01c00044 	movi	r7,1
 4083134:	9809883a 	mov	r4,r19
 4083138:	403ee83a 	callr	r8
 408313c:	100d883a 	mov	r6,r2
 4083140:	00bfffc4 	movi	r2,-1
 4083144:	30801426 	beq	r6,r2,4083198 <__sflush_r+0x1e4>
 4083148:	8880030b 	ldhu	r2,12(r17)
 408314c:	8a000a17 	ldw	r8,40(r17)
 4083150:	003fae06 	br	408300c <__alt_mem_dma_read_memory+0xfff8200c>
 4083154:	98c00017 	ldw	r3,0(r19)
 4083158:	183fba26 	beq	r3,zero,4083044 <__alt_mem_dma_read_memory+0xfff82044>
 408315c:	01000744 	movi	r4,29
 4083160:	19000626 	beq	r3,r4,408317c <__sflush_r+0x1c8>
 4083164:	01000584 	movi	r4,22
 4083168:	19000426 	beq	r3,r4,408317c <__sflush_r+0x1c8>
 408316c:	88c0030b 	ldhu	r3,12(r17)
 4083170:	18c01014 	ori	r3,r3,64
 4083174:	88c0030d 	sth	r3,12(r17)
 4083178:	003fc306 	br	4083088 <__alt_mem_dma_read_memory+0xfff82088>
 408317c:	8880030b 	ldhu	r2,12(r17)
 4083180:	88c00417 	ldw	r3,16(r17)
 4083184:	88000115 	stw	zero,4(r17)
 4083188:	10bdffcc 	andi	r2,r2,63487
 408318c:	8880030d 	sth	r2,12(r17)
 4083190:	88c00015 	stw	r3,0(r17)
 4083194:	003fb306 	br	4083064 <__alt_mem_dma_read_memory+0xfff82064>
 4083198:	98800017 	ldw	r2,0(r19)
 408319c:	103fea26 	beq	r2,zero,4083148 <__alt_mem_dma_read_memory+0xfff82148>
 40831a0:	00c00744 	movi	r3,29
 40831a4:	10c00226 	beq	r2,r3,40831b0 <__sflush_r+0x1fc>
 40831a8:	00c00584 	movi	r3,22
 40831ac:	10c0031e 	bne	r2,r3,40831bc <__sflush_r+0x208>
 40831b0:	9c000015 	stw	r16,0(r19)
 40831b4:	0005883a 	mov	r2,zero
 40831b8:	003fb306 	br	4083088 <__alt_mem_dma_read_memory+0xfff82088>
 40831bc:	88c0030b 	ldhu	r3,12(r17)
 40831c0:	3005883a 	mov	r2,r6
 40831c4:	18c01014 	ori	r3,r3,64
 40831c8:	88c0030d 	sth	r3,12(r17)
 40831cc:	003fae06 	br	4083088 <__alt_mem_dma_read_memory+0xfff82088>

040831d0 <_fflush_r>:
 40831d0:	defffd04 	addi	sp,sp,-12
 40831d4:	dc000115 	stw	r16,4(sp)
 40831d8:	dfc00215 	stw	ra,8(sp)
 40831dc:	2021883a 	mov	r16,r4
 40831e0:	20000226 	beq	r4,zero,40831ec <_fflush_r+0x1c>
 40831e4:	20800e17 	ldw	r2,56(r4)
 40831e8:	10000c26 	beq	r2,zero,408321c <_fflush_r+0x4c>
 40831ec:	2880030f 	ldh	r2,12(r5)
 40831f0:	1000051e 	bne	r2,zero,4083208 <_fflush_r+0x38>
 40831f4:	0005883a 	mov	r2,zero
 40831f8:	dfc00217 	ldw	ra,8(sp)
 40831fc:	dc000117 	ldw	r16,4(sp)
 4083200:	dec00304 	addi	sp,sp,12
 4083204:	f800283a 	ret
 4083208:	8009883a 	mov	r4,r16
 408320c:	dfc00217 	ldw	ra,8(sp)
 4083210:	dc000117 	ldw	r16,4(sp)
 4083214:	dec00304 	addi	sp,sp,12
 4083218:	4082fb41 	jmpi	4082fb4 <__sflush_r>
 408321c:	d9400015 	stw	r5,0(sp)
 4083220:	40835ac0 	call	40835ac <__sinit>
 4083224:	d9400017 	ldw	r5,0(sp)
 4083228:	003ff006 	br	40831ec <__alt_mem_dma_read_memory+0xfff821ec>

0408322c <fflush>:
 408322c:	20000526 	beq	r4,zero,4083244 <fflush+0x18>
 4083230:	00800034 	movhi	r2,0
 4083234:	1088e704 	addi	r2,r2,9116
 4083238:	200b883a 	mov	r5,r4
 408323c:	11000017 	ldw	r4,0(r2)
 4083240:	40831d01 	jmpi	40831d0 <_fflush_r>
 4083244:	00800034 	movhi	r2,0
 4083248:	1088e604 	addi	r2,r2,9112
 408324c:	11000017 	ldw	r4,0(r2)
 4083250:	01410234 	movhi	r5,1032
 4083254:	294c7404 	addi	r5,r5,12752
 4083258:	40841381 	jmpi	4084138 <_fwalk_reent>

0408325c <__fp_unlock>:
 408325c:	0005883a 	mov	r2,zero
 4083260:	f800283a 	ret

04083264 <_cleanup_r>:
 4083264:	01410234 	movhi	r5,1032
 4083268:	294bac04 	addi	r5,r5,11952
 408326c:	40841381 	jmpi	4084138 <_fwalk_reent>

04083270 <__sinit.part.1>:
 4083270:	defff704 	addi	sp,sp,-36
 4083274:	00c10234 	movhi	r3,1032
 4083278:	dfc00815 	stw	ra,32(sp)
 408327c:	ddc00715 	stw	r23,28(sp)
 4083280:	dd800615 	stw	r22,24(sp)
 4083284:	dd400515 	stw	r21,20(sp)
 4083288:	dd000415 	stw	r20,16(sp)
 408328c:	dcc00315 	stw	r19,12(sp)
 4083290:	dc800215 	stw	r18,8(sp)
 4083294:	dc400115 	stw	r17,4(sp)
 4083298:	dc000015 	stw	r16,0(sp)
 408329c:	18cc9904 	addi	r3,r3,12900
 40832a0:	24000117 	ldw	r16,4(r4)
 40832a4:	20c00f15 	stw	r3,60(r4)
 40832a8:	2080bb04 	addi	r2,r4,748
 40832ac:	00c000c4 	movi	r3,3
 40832b0:	20c0b915 	stw	r3,740(r4)
 40832b4:	2080ba15 	stw	r2,744(r4)
 40832b8:	2000b815 	stw	zero,736(r4)
 40832bc:	05c00204 	movi	r23,8
 40832c0:	00800104 	movi	r2,4
 40832c4:	2025883a 	mov	r18,r4
 40832c8:	b80d883a 	mov	r6,r23
 40832cc:	81001704 	addi	r4,r16,92
 40832d0:	000b883a 	mov	r5,zero
 40832d4:	80000015 	stw	zero,0(r16)
 40832d8:	80000115 	stw	zero,4(r16)
 40832dc:	80000215 	stw	zero,8(r16)
 40832e0:	8080030d 	sth	r2,12(r16)
 40832e4:	80001915 	stw	zero,100(r16)
 40832e8:	8000038d 	sth	zero,14(r16)
 40832ec:	80000415 	stw	zero,16(r16)
 40832f0:	80000515 	stw	zero,20(r16)
 40832f4:	80000615 	stw	zero,24(r16)
 40832f8:	4084bec0 	call	4084bec <memset>
 40832fc:	05810234 	movhi	r22,1032
 4083300:	94400217 	ldw	r17,8(r18)
 4083304:	05410234 	movhi	r21,1032
 4083308:	05010234 	movhi	r20,1032
 408330c:	04c10234 	movhi	r19,1032
 4083310:	b5943e04 	addi	r22,r22,20728
 4083314:	ad545504 	addi	r21,r21,20820
 4083318:	a5147404 	addi	r20,r20,20944
 408331c:	9cd48b04 	addi	r19,r19,21036
 4083320:	85800815 	stw	r22,32(r16)
 4083324:	85400915 	stw	r21,36(r16)
 4083328:	85000a15 	stw	r20,40(r16)
 408332c:	84c00b15 	stw	r19,44(r16)
 4083330:	84000715 	stw	r16,28(r16)
 4083334:	00800284 	movi	r2,10
 4083338:	8880030d 	sth	r2,12(r17)
 408333c:	00800044 	movi	r2,1
 4083340:	b80d883a 	mov	r6,r23
 4083344:	89001704 	addi	r4,r17,92
 4083348:	000b883a 	mov	r5,zero
 408334c:	88000015 	stw	zero,0(r17)
 4083350:	88000115 	stw	zero,4(r17)
 4083354:	88000215 	stw	zero,8(r17)
 4083358:	88001915 	stw	zero,100(r17)
 408335c:	8880038d 	sth	r2,14(r17)
 4083360:	88000415 	stw	zero,16(r17)
 4083364:	88000515 	stw	zero,20(r17)
 4083368:	88000615 	stw	zero,24(r17)
 408336c:	4084bec0 	call	4084bec <memset>
 4083370:	94000317 	ldw	r16,12(r18)
 4083374:	00800484 	movi	r2,18
 4083378:	8c400715 	stw	r17,28(r17)
 408337c:	8d800815 	stw	r22,32(r17)
 4083380:	8d400915 	stw	r21,36(r17)
 4083384:	8d000a15 	stw	r20,40(r17)
 4083388:	8cc00b15 	stw	r19,44(r17)
 408338c:	8080030d 	sth	r2,12(r16)
 4083390:	00800084 	movi	r2,2
 4083394:	80000015 	stw	zero,0(r16)
 4083398:	80000115 	stw	zero,4(r16)
 408339c:	80000215 	stw	zero,8(r16)
 40833a0:	80001915 	stw	zero,100(r16)
 40833a4:	8080038d 	sth	r2,14(r16)
 40833a8:	80000415 	stw	zero,16(r16)
 40833ac:	80000515 	stw	zero,20(r16)
 40833b0:	80000615 	stw	zero,24(r16)
 40833b4:	b80d883a 	mov	r6,r23
 40833b8:	000b883a 	mov	r5,zero
 40833bc:	81001704 	addi	r4,r16,92
 40833c0:	4084bec0 	call	4084bec <memset>
 40833c4:	00800044 	movi	r2,1
 40833c8:	84000715 	stw	r16,28(r16)
 40833cc:	85800815 	stw	r22,32(r16)
 40833d0:	85400915 	stw	r21,36(r16)
 40833d4:	85000a15 	stw	r20,40(r16)
 40833d8:	84c00b15 	stw	r19,44(r16)
 40833dc:	90800e15 	stw	r2,56(r18)
 40833e0:	dfc00817 	ldw	ra,32(sp)
 40833e4:	ddc00717 	ldw	r23,28(sp)
 40833e8:	dd800617 	ldw	r22,24(sp)
 40833ec:	dd400517 	ldw	r21,20(sp)
 40833f0:	dd000417 	ldw	r20,16(sp)
 40833f4:	dcc00317 	ldw	r19,12(sp)
 40833f8:	dc800217 	ldw	r18,8(sp)
 40833fc:	dc400117 	ldw	r17,4(sp)
 4083400:	dc000017 	ldw	r16,0(sp)
 4083404:	dec00904 	addi	sp,sp,36
 4083408:	f800283a 	ret

0408340c <__fp_lock>:
 408340c:	0005883a 	mov	r2,zero
 4083410:	f800283a 	ret

04083414 <__sfmoreglue>:
 4083414:	defffc04 	addi	sp,sp,-16
 4083418:	dc400115 	stw	r17,4(sp)
 408341c:	2c7fffc4 	addi	r17,r5,-1
 4083420:	8c401a24 	muli	r17,r17,104
 4083424:	dc800215 	stw	r18,8(sp)
 4083428:	2825883a 	mov	r18,r5
 408342c:	89401d04 	addi	r5,r17,116
 4083430:	dc000015 	stw	r16,0(sp)
 4083434:	dfc00315 	stw	ra,12(sp)
 4083438:	40843e00 	call	40843e0 <_malloc_r>
 408343c:	1021883a 	mov	r16,r2
 4083440:	10000726 	beq	r2,zero,4083460 <__sfmoreglue+0x4c>
 4083444:	11000304 	addi	r4,r2,12
 4083448:	10000015 	stw	zero,0(r2)
 408344c:	14800115 	stw	r18,4(r2)
 4083450:	11000215 	stw	r4,8(r2)
 4083454:	89801a04 	addi	r6,r17,104
 4083458:	000b883a 	mov	r5,zero
 408345c:	4084bec0 	call	4084bec <memset>
 4083460:	8005883a 	mov	r2,r16
 4083464:	dfc00317 	ldw	ra,12(sp)
 4083468:	dc800217 	ldw	r18,8(sp)
 408346c:	dc400117 	ldw	r17,4(sp)
 4083470:	dc000017 	ldw	r16,0(sp)
 4083474:	dec00404 	addi	sp,sp,16
 4083478:	f800283a 	ret

0408347c <__sfp>:
 408347c:	defffb04 	addi	sp,sp,-20
 4083480:	dc000015 	stw	r16,0(sp)
 4083484:	04000034 	movhi	r16,0
 4083488:	8408e604 	addi	r16,r16,9112
 408348c:	dcc00315 	stw	r19,12(sp)
 4083490:	2027883a 	mov	r19,r4
 4083494:	81000017 	ldw	r4,0(r16)
 4083498:	dfc00415 	stw	ra,16(sp)
 408349c:	dc800215 	stw	r18,8(sp)
 40834a0:	20800e17 	ldw	r2,56(r4)
 40834a4:	dc400115 	stw	r17,4(sp)
 40834a8:	1000021e 	bne	r2,zero,40834b4 <__sfp+0x38>
 40834ac:	40832700 	call	4083270 <__sinit.part.1>
 40834b0:	81000017 	ldw	r4,0(r16)
 40834b4:	2480b804 	addi	r18,r4,736
 40834b8:	047fffc4 	movi	r17,-1
 40834bc:	91000117 	ldw	r4,4(r18)
 40834c0:	94000217 	ldw	r16,8(r18)
 40834c4:	213fffc4 	addi	r4,r4,-1
 40834c8:	20000a16 	blt	r4,zero,40834f4 <__sfp+0x78>
 40834cc:	8080030f 	ldh	r2,12(r16)
 40834d0:	10000c26 	beq	r2,zero,4083504 <__sfp+0x88>
 40834d4:	80c01d04 	addi	r3,r16,116
 40834d8:	00000206 	br	40834e4 <__sfp+0x68>
 40834dc:	18bfe60f 	ldh	r2,-104(r3)
 40834e0:	10000826 	beq	r2,zero,4083504 <__sfp+0x88>
 40834e4:	213fffc4 	addi	r4,r4,-1
 40834e8:	1c3ffd04 	addi	r16,r3,-12
 40834ec:	18c01a04 	addi	r3,r3,104
 40834f0:	247ffa1e 	bne	r4,r17,40834dc <__alt_mem_dma_read_memory+0xfff824dc>
 40834f4:	90800017 	ldw	r2,0(r18)
 40834f8:	10001d26 	beq	r2,zero,4083570 <__sfp+0xf4>
 40834fc:	1025883a 	mov	r18,r2
 4083500:	003fee06 	br	40834bc <__alt_mem_dma_read_memory+0xfff824bc>
 4083504:	00bfffc4 	movi	r2,-1
 4083508:	8080038d 	sth	r2,14(r16)
 408350c:	00800044 	movi	r2,1
 4083510:	8080030d 	sth	r2,12(r16)
 4083514:	80001915 	stw	zero,100(r16)
 4083518:	80000015 	stw	zero,0(r16)
 408351c:	80000215 	stw	zero,8(r16)
 4083520:	80000115 	stw	zero,4(r16)
 4083524:	80000415 	stw	zero,16(r16)
 4083528:	80000515 	stw	zero,20(r16)
 408352c:	80000615 	stw	zero,24(r16)
 4083530:	01800204 	movi	r6,8
 4083534:	000b883a 	mov	r5,zero
 4083538:	81001704 	addi	r4,r16,92
 408353c:	4084bec0 	call	4084bec <memset>
 4083540:	8005883a 	mov	r2,r16
 4083544:	80000c15 	stw	zero,48(r16)
 4083548:	80000d15 	stw	zero,52(r16)
 408354c:	80001115 	stw	zero,68(r16)
 4083550:	80001215 	stw	zero,72(r16)
 4083554:	dfc00417 	ldw	ra,16(sp)
 4083558:	dcc00317 	ldw	r19,12(sp)
 408355c:	dc800217 	ldw	r18,8(sp)
 4083560:	dc400117 	ldw	r17,4(sp)
 4083564:	dc000017 	ldw	r16,0(sp)
 4083568:	dec00504 	addi	sp,sp,20
 408356c:	f800283a 	ret
 4083570:	01400104 	movi	r5,4
 4083574:	9809883a 	mov	r4,r19
 4083578:	40834140 	call	4083414 <__sfmoreglue>
 408357c:	90800015 	stw	r2,0(r18)
 4083580:	103fde1e 	bne	r2,zero,40834fc <__alt_mem_dma_read_memory+0xfff824fc>
 4083584:	00800304 	movi	r2,12
 4083588:	98800015 	stw	r2,0(r19)
 408358c:	0005883a 	mov	r2,zero
 4083590:	003ff006 	br	4083554 <__alt_mem_dma_read_memory+0xfff82554>

04083594 <_cleanup>:
 4083594:	00800034 	movhi	r2,0
 4083598:	1088e604 	addi	r2,r2,9112
 408359c:	11000017 	ldw	r4,0(r2)
 40835a0:	01410234 	movhi	r5,1032
 40835a4:	294bac04 	addi	r5,r5,11952
 40835a8:	40841381 	jmpi	4084138 <_fwalk_reent>

040835ac <__sinit>:
 40835ac:	20800e17 	ldw	r2,56(r4)
 40835b0:	10000126 	beq	r2,zero,40835b8 <__sinit+0xc>
 40835b4:	f800283a 	ret
 40835b8:	40832701 	jmpi	4083270 <__sinit.part.1>

040835bc <__sfp_lock_acquire>:
 40835bc:	f800283a 	ret

040835c0 <__sfp_lock_release>:
 40835c0:	f800283a 	ret

040835c4 <__sinit_lock_acquire>:
 40835c4:	f800283a 	ret

040835c8 <__sinit_lock_release>:
 40835c8:	f800283a 	ret

040835cc <__fp_lock_all>:
 40835cc:	00800034 	movhi	r2,0
 40835d0:	1088e704 	addi	r2,r2,9116
 40835d4:	11000017 	ldw	r4,0(r2)
 40835d8:	01410234 	movhi	r5,1032
 40835dc:	294d0304 	addi	r5,r5,13324
 40835e0:	40840741 	jmpi	4084074 <_fwalk>

040835e4 <__fp_unlock_all>:
 40835e4:	00800034 	movhi	r2,0
 40835e8:	1088e704 	addi	r2,r2,9116
 40835ec:	11000017 	ldw	r4,0(r2)
 40835f0:	01410234 	movhi	r5,1032
 40835f4:	294c9704 	addi	r5,r5,12892
 40835f8:	40840741 	jmpi	4084074 <_fwalk>

040835fc <_fopen_r>:
 40835fc:	defffa04 	addi	sp,sp,-24
 4083600:	3005883a 	mov	r2,r6
 4083604:	dcc00415 	stw	r19,16(sp)
 4083608:	d80d883a 	mov	r6,sp
 408360c:	2827883a 	mov	r19,r5
 4083610:	100b883a 	mov	r5,r2
 4083614:	dc800315 	stw	r18,12(sp)
 4083618:	dfc00515 	stw	ra,20(sp)
 408361c:	dc400215 	stw	r17,8(sp)
 4083620:	dc000115 	stw	r16,4(sp)
 4083624:	2025883a 	mov	r18,r4
 4083628:	408aa380 	call	408aa38 <__sflags>
 408362c:	10002726 	beq	r2,zero,40836cc <_fopen_r+0xd0>
 4083630:	9009883a 	mov	r4,r18
 4083634:	1023883a 	mov	r17,r2
 4083638:	408347c0 	call	408347c <__sfp>
 408363c:	1021883a 	mov	r16,r2
 4083640:	10002226 	beq	r2,zero,40836cc <_fopen_r+0xd0>
 4083644:	d9800017 	ldw	r6,0(sp)
 4083648:	01c06d84 	movi	r7,438
 408364c:	980b883a 	mov	r5,r19
 4083650:	9009883a 	mov	r4,r18
 4083654:	4084d140 	call	4084d14 <_open_r>
 4083658:	10001916 	blt	r2,zero,40836c0 <_fopen_r+0xc4>
 408365c:	8080038d 	sth	r2,14(r16)
 4083660:	00810234 	movhi	r2,1032
 4083664:	10943e04 	addi	r2,r2,20728
 4083668:	80800815 	stw	r2,32(r16)
 408366c:	00810234 	movhi	r2,1032
 4083670:	10945504 	addi	r2,r2,20820
 4083674:	80800915 	stw	r2,36(r16)
 4083678:	00810234 	movhi	r2,1032
 408367c:	10947404 	addi	r2,r2,20944
 4083680:	80800a15 	stw	r2,40(r16)
 4083684:	00810234 	movhi	r2,1032
 4083688:	10948b04 	addi	r2,r2,21036
 408368c:	8440030d 	sth	r17,12(r16)
 4083690:	84000715 	stw	r16,28(r16)
 4083694:	80800b15 	stw	r2,44(r16)
 4083698:	8c40400c 	andi	r17,r17,256
 408369c:	88000d1e 	bne	r17,zero,40836d4 <_fopen_r+0xd8>
 40836a0:	8005883a 	mov	r2,r16
 40836a4:	dfc00517 	ldw	ra,20(sp)
 40836a8:	dcc00417 	ldw	r19,16(sp)
 40836ac:	dc800317 	ldw	r18,12(sp)
 40836b0:	dc400217 	ldw	r17,8(sp)
 40836b4:	dc000117 	ldw	r16,4(sp)
 40836b8:	dec00604 	addi	sp,sp,24
 40836bc:	f800283a 	ret
 40836c0:	40835bc0 	call	40835bc <__sfp_lock_acquire>
 40836c4:	8000030d 	sth	zero,12(r16)
 40836c8:	40835c00 	call	40835c0 <__sfp_lock_release>
 40836cc:	0005883a 	mov	r2,zero
 40836d0:	003ff406 	br	40836a4 <__alt_mem_dma_read_memory+0xfff826a4>
 40836d4:	01c00084 	movi	r7,2
 40836d8:	000d883a 	mov	r6,zero
 40836dc:	800b883a 	mov	r5,r16
 40836e0:	9009883a 	mov	r4,r18
 40836e4:	4083b980 	call	4083b98 <_fseek_r>
 40836e8:	8005883a 	mov	r2,r16
 40836ec:	003fed06 	br	40836a4 <__alt_mem_dma_read_memory+0xfff826a4>

040836f0 <fopen>:
 40836f0:	00800034 	movhi	r2,0
 40836f4:	1088e704 	addi	r2,r2,9116
 40836f8:	280d883a 	mov	r6,r5
 40836fc:	200b883a 	mov	r5,r4
 4083700:	11000017 	ldw	r4,0(r2)
 4083704:	40835fc1 	jmpi	40835fc <_fopen_r>

04083708 <_malloc_trim_r>:
 4083708:	defffb04 	addi	sp,sp,-20
 408370c:	dcc00315 	stw	r19,12(sp)
 4083710:	04c00034 	movhi	r19,0
 4083714:	dc800215 	stw	r18,8(sp)
 4083718:	dc400115 	stw	r17,4(sp)
 408371c:	dc000015 	stw	r16,0(sp)
 4083720:	dfc00415 	stw	ra,16(sp)
 4083724:	2821883a 	mov	r16,r5
 4083728:	9cc30304 	addi	r19,r19,3084
 408372c:	2025883a 	mov	r18,r4
 4083730:	4098fe40 	call	4098fe4 <__malloc_lock>
 4083734:	98800217 	ldw	r2,8(r19)
 4083738:	14400117 	ldw	r17,4(r2)
 408373c:	00bfff04 	movi	r2,-4
 4083740:	88a2703a 	and	r17,r17,r2
 4083744:	8c21c83a 	sub	r16,r17,r16
 4083748:	8403fbc4 	addi	r16,r16,4079
 408374c:	8020d33a 	srli	r16,r16,12
 4083750:	0083ffc4 	movi	r2,4095
 4083754:	843fffc4 	addi	r16,r16,-1
 4083758:	8020933a 	slli	r16,r16,12
 408375c:	1400060e 	bge	r2,r16,4083778 <_malloc_trim_r+0x70>
 4083760:	000b883a 	mov	r5,zero
 4083764:	9009883a 	mov	r4,r18
 4083768:	40850a40 	call	40850a4 <_sbrk_r>
 408376c:	98c00217 	ldw	r3,8(r19)
 4083770:	1c47883a 	add	r3,r3,r17
 4083774:	10c00a26 	beq	r2,r3,40837a0 <_malloc_trim_r+0x98>
 4083778:	9009883a 	mov	r4,r18
 408377c:	40990080 	call	4099008 <__malloc_unlock>
 4083780:	0005883a 	mov	r2,zero
 4083784:	dfc00417 	ldw	ra,16(sp)
 4083788:	dcc00317 	ldw	r19,12(sp)
 408378c:	dc800217 	ldw	r18,8(sp)
 4083790:	dc400117 	ldw	r17,4(sp)
 4083794:	dc000017 	ldw	r16,0(sp)
 4083798:	dec00504 	addi	sp,sp,20
 408379c:	f800283a 	ret
 40837a0:	040bc83a 	sub	r5,zero,r16
 40837a4:	9009883a 	mov	r4,r18
 40837a8:	40850a40 	call	40850a4 <_sbrk_r>
 40837ac:	00ffffc4 	movi	r3,-1
 40837b0:	10c00d26 	beq	r2,r3,40837e8 <_malloc_trim_r+0xe0>
 40837b4:	00c00034 	movhi	r3,0
 40837b8:	18c91d04 	addi	r3,r3,9332
 40837bc:	18800017 	ldw	r2,0(r3)
 40837c0:	99000217 	ldw	r4,8(r19)
 40837c4:	8c23c83a 	sub	r17,r17,r16
 40837c8:	8c400054 	ori	r17,r17,1
 40837cc:	1421c83a 	sub	r16,r2,r16
 40837d0:	24400115 	stw	r17,4(r4)
 40837d4:	9009883a 	mov	r4,r18
 40837d8:	1c000015 	stw	r16,0(r3)
 40837dc:	40990080 	call	4099008 <__malloc_unlock>
 40837e0:	00800044 	movi	r2,1
 40837e4:	003fe706 	br	4083784 <__alt_mem_dma_read_memory+0xfff82784>
 40837e8:	000b883a 	mov	r5,zero
 40837ec:	9009883a 	mov	r4,r18
 40837f0:	40850a40 	call	40850a4 <_sbrk_r>
 40837f4:	99000217 	ldw	r4,8(r19)
 40837f8:	014003c4 	movi	r5,15
 40837fc:	1107c83a 	sub	r3,r2,r4
 4083800:	28ffdd0e 	bge	r5,r3,4083778 <__alt_mem_dma_read_memory+0xfff82778>
 4083804:	01400034 	movhi	r5,0
 4083808:	2948e804 	addi	r5,r5,9120
 408380c:	29400017 	ldw	r5,0(r5)
 4083810:	18c00054 	ori	r3,r3,1
 4083814:	20c00115 	stw	r3,4(r4)
 4083818:	00c00034 	movhi	r3,0
 408381c:	1145c83a 	sub	r2,r2,r5
 4083820:	18c91d04 	addi	r3,r3,9332
 4083824:	18800015 	stw	r2,0(r3)
 4083828:	003fd306 	br	4083778 <__alt_mem_dma_read_memory+0xfff82778>

0408382c <_free_r>:
 408382c:	28004126 	beq	r5,zero,4083934 <_free_r+0x108>
 4083830:	defffd04 	addi	sp,sp,-12
 4083834:	dc400115 	stw	r17,4(sp)
 4083838:	dc000015 	stw	r16,0(sp)
 408383c:	2023883a 	mov	r17,r4
 4083840:	2821883a 	mov	r16,r5
 4083844:	dfc00215 	stw	ra,8(sp)
 4083848:	4098fe40 	call	4098fe4 <__malloc_lock>
 408384c:	81ffff17 	ldw	r7,-4(r16)
 4083850:	00bfff84 	movi	r2,-2
 4083854:	01000034 	movhi	r4,0
 4083858:	81bffe04 	addi	r6,r16,-8
 408385c:	3884703a 	and	r2,r7,r2
 4083860:	21030304 	addi	r4,r4,3084
 4083864:	308b883a 	add	r5,r6,r2
 4083868:	2a400117 	ldw	r9,4(r5)
 408386c:	22000217 	ldw	r8,8(r4)
 4083870:	00ffff04 	movi	r3,-4
 4083874:	48c6703a 	and	r3,r9,r3
 4083878:	2a005726 	beq	r5,r8,40839d8 <_free_r+0x1ac>
 408387c:	28c00115 	stw	r3,4(r5)
 4083880:	39c0004c 	andi	r7,r7,1
 4083884:	3800091e 	bne	r7,zero,40838ac <_free_r+0x80>
 4083888:	823ffe17 	ldw	r8,-8(r16)
 408388c:	22400204 	addi	r9,r4,8
 4083890:	320dc83a 	sub	r6,r6,r8
 4083894:	31c00217 	ldw	r7,8(r6)
 4083898:	1205883a 	add	r2,r2,r8
 408389c:	3a406526 	beq	r7,r9,4083a34 <_free_r+0x208>
 40838a0:	32000317 	ldw	r8,12(r6)
 40838a4:	3a000315 	stw	r8,12(r7)
 40838a8:	41c00215 	stw	r7,8(r8)
 40838ac:	28cf883a 	add	r7,r5,r3
 40838b0:	39c00117 	ldw	r7,4(r7)
 40838b4:	39c0004c 	andi	r7,r7,1
 40838b8:	38003a26 	beq	r7,zero,40839a4 <_free_r+0x178>
 40838bc:	10c00054 	ori	r3,r2,1
 40838c0:	30c00115 	stw	r3,4(r6)
 40838c4:	3087883a 	add	r3,r6,r2
 40838c8:	18800015 	stw	r2,0(r3)
 40838cc:	00c07fc4 	movi	r3,511
 40838d0:	18801936 	bltu	r3,r2,4083938 <_free_r+0x10c>
 40838d4:	1004d0fa 	srli	r2,r2,3
 40838d8:	01c00044 	movi	r7,1
 40838dc:	21400117 	ldw	r5,4(r4)
 40838e0:	10c00044 	addi	r3,r2,1
 40838e4:	18c7883a 	add	r3,r3,r3
 40838e8:	1005d0ba 	srai	r2,r2,2
 40838ec:	18c7883a 	add	r3,r3,r3
 40838f0:	18c7883a 	add	r3,r3,r3
 40838f4:	1907883a 	add	r3,r3,r4
 40838f8:	3884983a 	sll	r2,r7,r2
 40838fc:	19c00017 	ldw	r7,0(r3)
 4083900:	1a3ffe04 	addi	r8,r3,-8
 4083904:	1144b03a 	or	r2,r2,r5
 4083908:	32000315 	stw	r8,12(r6)
 408390c:	31c00215 	stw	r7,8(r6)
 4083910:	20800115 	stw	r2,4(r4)
 4083914:	19800015 	stw	r6,0(r3)
 4083918:	39800315 	stw	r6,12(r7)
 408391c:	8809883a 	mov	r4,r17
 4083920:	dfc00217 	ldw	ra,8(sp)
 4083924:	dc400117 	ldw	r17,4(sp)
 4083928:	dc000017 	ldw	r16,0(sp)
 408392c:	dec00304 	addi	sp,sp,12
 4083930:	40990081 	jmpi	4099008 <__malloc_unlock>
 4083934:	f800283a 	ret
 4083938:	100ad27a 	srli	r5,r2,9
 408393c:	00c00104 	movi	r3,4
 4083940:	19404a36 	bltu	r3,r5,4083a6c <_free_r+0x240>
 4083944:	100ad1ba 	srli	r5,r2,6
 4083948:	28c00e44 	addi	r3,r5,57
 408394c:	18c7883a 	add	r3,r3,r3
 4083950:	29400e04 	addi	r5,r5,56
 4083954:	18c7883a 	add	r3,r3,r3
 4083958:	18c7883a 	add	r3,r3,r3
 408395c:	1909883a 	add	r4,r3,r4
 4083960:	20c00017 	ldw	r3,0(r4)
 4083964:	01c00034 	movhi	r7,0
 4083968:	213ffe04 	addi	r4,r4,-8
 408396c:	39c30304 	addi	r7,r7,3084
 4083970:	20c04426 	beq	r4,r3,4083a84 <_free_r+0x258>
 4083974:	01ffff04 	movi	r7,-4
 4083978:	19400117 	ldw	r5,4(r3)
 408397c:	29ca703a 	and	r5,r5,r7
 4083980:	1140022e 	bgeu	r2,r5,408398c <_free_r+0x160>
 4083984:	18c00217 	ldw	r3,8(r3)
 4083988:	20fffb1e 	bne	r4,r3,4083978 <__alt_mem_dma_read_memory+0xfff82978>
 408398c:	19000317 	ldw	r4,12(r3)
 4083990:	31000315 	stw	r4,12(r6)
 4083994:	30c00215 	stw	r3,8(r6)
 4083998:	21800215 	stw	r6,8(r4)
 408399c:	19800315 	stw	r6,12(r3)
 40839a0:	003fde06 	br	408391c <__alt_mem_dma_read_memory+0xfff8291c>
 40839a4:	29c00217 	ldw	r7,8(r5)
 40839a8:	10c5883a 	add	r2,r2,r3
 40839ac:	00c00034 	movhi	r3,0
 40839b0:	18c30504 	addi	r3,r3,3092
 40839b4:	38c03b26 	beq	r7,r3,4083aa4 <_free_r+0x278>
 40839b8:	2a000317 	ldw	r8,12(r5)
 40839bc:	11400054 	ori	r5,r2,1
 40839c0:	3087883a 	add	r3,r6,r2
 40839c4:	3a000315 	stw	r8,12(r7)
 40839c8:	41c00215 	stw	r7,8(r8)
 40839cc:	31400115 	stw	r5,4(r6)
 40839d0:	18800015 	stw	r2,0(r3)
 40839d4:	003fbd06 	br	40838cc <__alt_mem_dma_read_memory+0xfff828cc>
 40839d8:	39c0004c 	andi	r7,r7,1
 40839dc:	10c5883a 	add	r2,r2,r3
 40839e0:	3800071e 	bne	r7,zero,4083a00 <_free_r+0x1d4>
 40839e4:	81fffe17 	ldw	r7,-8(r16)
 40839e8:	31cdc83a 	sub	r6,r6,r7
 40839ec:	30c00317 	ldw	r3,12(r6)
 40839f0:	31400217 	ldw	r5,8(r6)
 40839f4:	11c5883a 	add	r2,r2,r7
 40839f8:	28c00315 	stw	r3,12(r5)
 40839fc:	19400215 	stw	r5,8(r3)
 4083a00:	10c00054 	ori	r3,r2,1
 4083a04:	30c00115 	stw	r3,4(r6)
 4083a08:	00c00034 	movhi	r3,0
 4083a0c:	18c8e904 	addi	r3,r3,9124
 4083a10:	18c00017 	ldw	r3,0(r3)
 4083a14:	21800215 	stw	r6,8(r4)
 4083a18:	10ffc036 	bltu	r2,r3,408391c <__alt_mem_dma_read_memory+0xfff8291c>
 4083a1c:	00800034 	movhi	r2,0
 4083a20:	10891204 	addi	r2,r2,9288
 4083a24:	11400017 	ldw	r5,0(r2)
 4083a28:	8809883a 	mov	r4,r17
 4083a2c:	40837080 	call	4083708 <_malloc_trim_r>
 4083a30:	003fba06 	br	408391c <__alt_mem_dma_read_memory+0xfff8291c>
 4083a34:	28c9883a 	add	r4,r5,r3
 4083a38:	21000117 	ldw	r4,4(r4)
 4083a3c:	2100004c 	andi	r4,r4,1
 4083a40:	2000391e 	bne	r4,zero,4083b28 <_free_r+0x2fc>
 4083a44:	29c00217 	ldw	r7,8(r5)
 4083a48:	29000317 	ldw	r4,12(r5)
 4083a4c:	1885883a 	add	r2,r3,r2
 4083a50:	10c00054 	ori	r3,r2,1
 4083a54:	39000315 	stw	r4,12(r7)
 4083a58:	21c00215 	stw	r7,8(r4)
 4083a5c:	30c00115 	stw	r3,4(r6)
 4083a60:	308d883a 	add	r6,r6,r2
 4083a64:	30800015 	stw	r2,0(r6)
 4083a68:	003fac06 	br	408391c <__alt_mem_dma_read_memory+0xfff8291c>
 4083a6c:	00c00504 	movi	r3,20
 4083a70:	19401536 	bltu	r3,r5,4083ac8 <_free_r+0x29c>
 4083a74:	28c01704 	addi	r3,r5,92
 4083a78:	18c7883a 	add	r3,r3,r3
 4083a7c:	294016c4 	addi	r5,r5,91
 4083a80:	003fb406 	br	4083954 <__alt_mem_dma_read_memory+0xfff82954>
 4083a84:	280bd0ba 	srai	r5,r5,2
 4083a88:	00c00044 	movi	r3,1
 4083a8c:	38800117 	ldw	r2,4(r7)
 4083a90:	194a983a 	sll	r5,r3,r5
 4083a94:	2007883a 	mov	r3,r4
 4083a98:	2884b03a 	or	r2,r5,r2
 4083a9c:	38800115 	stw	r2,4(r7)
 4083aa0:	003fbb06 	br	4083990 <__alt_mem_dma_read_memory+0xfff82990>
 4083aa4:	21800515 	stw	r6,20(r4)
 4083aa8:	21800415 	stw	r6,16(r4)
 4083aac:	10c00054 	ori	r3,r2,1
 4083ab0:	31c00315 	stw	r7,12(r6)
 4083ab4:	31c00215 	stw	r7,8(r6)
 4083ab8:	30c00115 	stw	r3,4(r6)
 4083abc:	308d883a 	add	r6,r6,r2
 4083ac0:	30800015 	stw	r2,0(r6)
 4083ac4:	003f9506 	br	408391c <__alt_mem_dma_read_memory+0xfff8291c>
 4083ac8:	00c01504 	movi	r3,84
 4083acc:	19400536 	bltu	r3,r5,4083ae4 <_free_r+0x2b8>
 4083ad0:	100ad33a 	srli	r5,r2,12
 4083ad4:	28c01bc4 	addi	r3,r5,111
 4083ad8:	18c7883a 	add	r3,r3,r3
 4083adc:	29401b84 	addi	r5,r5,110
 4083ae0:	003f9c06 	br	4083954 <__alt_mem_dma_read_memory+0xfff82954>
 4083ae4:	00c05504 	movi	r3,340
 4083ae8:	19400536 	bltu	r3,r5,4083b00 <_free_r+0x2d4>
 4083aec:	100ad3fa 	srli	r5,r2,15
 4083af0:	28c01e04 	addi	r3,r5,120
 4083af4:	18c7883a 	add	r3,r3,r3
 4083af8:	29401dc4 	addi	r5,r5,119
 4083afc:	003f9506 	br	4083954 <__alt_mem_dma_read_memory+0xfff82954>
 4083b00:	00c15504 	movi	r3,1364
 4083b04:	19400536 	bltu	r3,r5,4083b1c <_free_r+0x2f0>
 4083b08:	100ad4ba 	srli	r5,r2,18
 4083b0c:	28c01f44 	addi	r3,r5,125
 4083b10:	18c7883a 	add	r3,r3,r3
 4083b14:	29401f04 	addi	r5,r5,124
 4083b18:	003f8e06 	br	4083954 <__alt_mem_dma_read_memory+0xfff82954>
 4083b1c:	00c03f84 	movi	r3,254
 4083b20:	01401f84 	movi	r5,126
 4083b24:	003f8b06 	br	4083954 <__alt_mem_dma_read_memory+0xfff82954>
 4083b28:	10c00054 	ori	r3,r2,1
 4083b2c:	30c00115 	stw	r3,4(r6)
 4083b30:	308d883a 	add	r6,r6,r2
 4083b34:	30800015 	stw	r2,0(r6)
 4083b38:	003f7806 	br	408391c <__alt_mem_dma_read_memory+0xfff8291c>

04083b3c <fscanf>:
 4083b3c:	defffd04 	addi	sp,sp,-12
 4083b40:	2005883a 	mov	r2,r4
 4083b44:	dfc00015 	stw	ra,0(sp)
 4083b48:	d9800115 	stw	r6,4(sp)
 4083b4c:	d9c00215 	stw	r7,8(sp)
 4083b50:	00c00034 	movhi	r3,0
 4083b54:	18c8e704 	addi	r3,r3,9116
 4083b58:	19000017 	ldw	r4,0(r3)
 4083b5c:	280d883a 	mov	r6,r5
 4083b60:	d9c00104 	addi	r7,sp,4
 4083b64:	100b883a 	mov	r5,r2
 4083b68:	4088ddc0 	call	4088ddc <_vfscanf_r>
 4083b6c:	dfc00017 	ldw	ra,0(sp)
 4083b70:	dec00304 	addi	sp,sp,12
 4083b74:	f800283a 	ret

04083b78 <_fscanf_r>:
 4083b78:	defffe04 	addi	sp,sp,-8
 4083b7c:	dfc00015 	stw	ra,0(sp)
 4083b80:	d9c00115 	stw	r7,4(sp)
 4083b84:	d9c00104 	addi	r7,sp,4
 4083b88:	4088ddc0 	call	4088ddc <_vfscanf_r>
 4083b8c:	dfc00017 	ldw	ra,0(sp)
 4083b90:	dec00204 	addi	sp,sp,8
 4083b94:	f800283a 	ret

04083b98 <_fseek_r>:
 4083b98:	4083bb81 	jmpi	4083bb8 <_fseeko_r>

04083b9c <fseek>:
 4083b9c:	00800034 	movhi	r2,0
 4083ba0:	1088e704 	addi	r2,r2,9116
 4083ba4:	300f883a 	mov	r7,r6
 4083ba8:	280d883a 	mov	r6,r5
 4083bac:	200b883a 	mov	r5,r4
 4083bb0:	11000017 	ldw	r4,0(r2)
 4083bb4:	4083bb81 	jmpi	4083bb8 <_fseeko_r>

04083bb8 <_fseeko_r>:
 4083bb8:	deffe804 	addi	sp,sp,-96
 4083bbc:	dd401415 	stw	r21,80(sp)
 4083bc0:	dc801115 	stw	r18,68(sp)
 4083bc4:	dc401015 	stw	r17,64(sp)
 4083bc8:	dc000f15 	stw	r16,60(sp)
 4083bcc:	dfc01715 	stw	ra,92(sp)
 4083bd0:	ddc01615 	stw	r23,88(sp)
 4083bd4:	dd801515 	stw	r22,84(sp)
 4083bd8:	dd001315 	stw	r20,76(sp)
 4083bdc:	dcc01215 	stw	r19,72(sp)
 4083be0:	2023883a 	mov	r17,r4
 4083be4:	2821883a 	mov	r16,r5
 4083be8:	302b883a 	mov	r21,r6
 4083bec:	3825883a 	mov	r18,r7
 4083bf0:	20000226 	beq	r4,zero,4083bfc <_fseeko_r+0x44>
 4083bf4:	20800e17 	ldw	r2,56(r4)
 4083bf8:	10005a26 	beq	r2,zero,4083d64 <_fseeko_r+0x1ac>
 4083bfc:	8080030b 	ldhu	r2,12(r16)
 4083c00:	00c04204 	movi	r3,264
 4083c04:	1080420c 	andi	r2,r2,264
 4083c08:	10c05b26 	beq	r2,r3,4083d78 <_fseeko_r+0x1c0>
 4083c0c:	85000a17 	ldw	r20,40(r16)
 4083c10:	a000f626 	beq	r20,zero,4083fec <_fseeko_r+0x434>
 4083c14:	00800044 	movi	r2,1
 4083c18:	90803e26 	beq	r18,r2,4083d14 <_fseeko_r+0x15c>
 4083c1c:	00800084 	movi	r2,2
 4083c20:	90801026 	beq	r18,r2,4083c64 <_fseeko_r+0xac>
 4083c24:	90000f26 	beq	r18,zero,4083c64 <_fseeko_r+0xac>
 4083c28:	00800584 	movi	r2,22
 4083c2c:	88800015 	stw	r2,0(r17)
 4083c30:	04ffffc4 	movi	r19,-1
 4083c34:	9805883a 	mov	r2,r19
 4083c38:	dfc01717 	ldw	ra,92(sp)
 4083c3c:	ddc01617 	ldw	r23,88(sp)
 4083c40:	dd801517 	ldw	r22,84(sp)
 4083c44:	dd401417 	ldw	r21,80(sp)
 4083c48:	dd001317 	ldw	r20,76(sp)
 4083c4c:	dcc01217 	ldw	r19,72(sp)
 4083c50:	dc801117 	ldw	r18,68(sp)
 4083c54:	dc401017 	ldw	r17,64(sp)
 4083c58:	dc000f17 	ldw	r16,60(sp)
 4083c5c:	dec01804 	addi	sp,sp,96
 4083c60:	f800283a 	ret
 4083c64:	80800417 	ldw	r2,16(r16)
 4083c68:	002f883a 	mov	r23,zero
 4083c6c:	0027883a 	mov	r19,zero
 4083c70:	1000cb26 	beq	r2,zero,4083fa0 <_fseeko_r+0x3e8>
 4083c74:	8080030b 	ldhu	r2,12(r16)
 4083c78:	10c2068c 	andi	r3,r2,2074
 4083c7c:	1800071e 	bne	r3,zero,4083c9c <_fseeko_r+0xe4>
 4083c80:	10c1000c 	andi	r3,r2,1024
 4083c84:	1800451e 	bne	r3,zero,4083d9c <_fseeko_r+0x1e4>
 4083c88:	00c10234 	movhi	r3,1032
 4083c8c:	18d47404 	addi	r3,r3,20944
 4083c90:	a0c0b726 	beq	r20,r3,4083f70 <_fseeko_r+0x3b8>
 4083c94:	10820014 	ori	r2,r2,2048
 4083c98:	8080030d 	sth	r2,12(r16)
 4083c9c:	800b883a 	mov	r5,r16
 4083ca0:	8809883a 	mov	r4,r17
 4083ca4:	40831d00 	call	40831d0 <_fflush_r>
 4083ca8:	1027883a 	mov	r19,r2
 4083cac:	103fe01e 	bne	r2,zero,4083c30 <__alt_mem_dma_read_memory+0xfff82c30>
 4083cb0:	81400717 	ldw	r5,28(r16)
 4083cb4:	900f883a 	mov	r7,r18
 4083cb8:	a80d883a 	mov	r6,r21
 4083cbc:	8809883a 	mov	r4,r17
 4083cc0:	a03ee83a 	callr	r20
 4083cc4:	00ffffc4 	movi	r3,-1
 4083cc8:	10ffd926 	beq	r2,r3,4083c30 <__alt_mem_dma_read_memory+0xfff82c30>
 4083ccc:	81400c17 	ldw	r5,48(r16)
 4083cd0:	28000526 	beq	r5,zero,4083ce8 <_fseeko_r+0x130>
 4083cd4:	80801004 	addi	r2,r16,64
 4083cd8:	28800226 	beq	r5,r2,4083ce4 <_fseeko_r+0x12c>
 4083cdc:	8809883a 	mov	r4,r17
 4083ce0:	408382c0 	call	408382c <_free_r>
 4083ce4:	80000c15 	stw	zero,48(r16)
 4083ce8:	8080030b 	ldhu	r2,12(r16)
 4083cec:	80c00417 	ldw	r3,16(r16)
 4083cf0:	80000115 	stw	zero,4(r16)
 4083cf4:	10bdf7cc 	andi	r2,r2,63455
 4083cf8:	80c00015 	stw	r3,0(r16)
 4083cfc:	8080030d 	sth	r2,12(r16)
 4083d00:	01800204 	movi	r6,8
 4083d04:	000b883a 	mov	r5,zero
 4083d08:	81001704 	addi	r4,r16,92
 4083d0c:	4084bec0 	call	4084bec <memset>
 4083d10:	003fc806 	br	4083c34 <__alt_mem_dma_read_memory+0xfff82c34>
 4083d14:	800b883a 	mov	r5,r16
 4083d18:	8809883a 	mov	r4,r17
 4083d1c:	40831d00 	call	40831d0 <_fflush_r>
 4083d20:	8080030b 	ldhu	r2,12(r16)
 4083d24:	10c4000c 	andi	r3,r2,4096
 4083d28:	18008726 	beq	r3,zero,4083f48 <_fseeko_r+0x390>
 4083d2c:	84c01417 	ldw	r19,80(r16)
 4083d30:	10c0010c 	andi	r3,r2,4
 4083d34:	1800431e 	bne	r3,zero,4083e44 <_fseeko_r+0x28c>
 4083d38:	1080020c 	andi	r2,r2,8
 4083d3c:	10008026 	beq	r2,zero,4083f40 <_fseeko_r+0x388>
 4083d40:	80c00017 	ldw	r3,0(r16)
 4083d44:	80800417 	ldw	r2,16(r16)
 4083d48:	18000226 	beq	r3,zero,4083d54 <_fseeko_r+0x19c>
 4083d4c:	1887c83a 	sub	r3,r3,r2
 4083d50:	98e7883a 	add	r19,r19,r3
 4083d54:	aceb883a 	add	r21,r21,r19
 4083d58:	05c00044 	movi	r23,1
 4083d5c:	0025883a 	mov	r18,zero
 4083d60:	003fc306 	br	4083c70 <__alt_mem_dma_read_memory+0xfff82c70>
 4083d64:	40835ac0 	call	40835ac <__sinit>
 4083d68:	8080030b 	ldhu	r2,12(r16)
 4083d6c:	00c04204 	movi	r3,264
 4083d70:	1080420c 	andi	r2,r2,264
 4083d74:	10ffa51e 	bne	r2,r3,4083c0c <__alt_mem_dma_read_memory+0xfff82c0c>
 4083d78:	800b883a 	mov	r5,r16
 4083d7c:	8809883a 	mov	r4,r17
 4083d80:	40831d00 	call	40831d0 <_fflush_r>
 4083d84:	003fa106 	br	4083c0c <__alt_mem_dma_read_memory+0xfff82c0c>
 4083d88:	8080030b 	ldhu	r2,12(r16)
 4083d8c:	00c10004 	movi	r3,1024
 4083d90:	80c01315 	stw	r3,76(r16)
 4083d94:	10c4b03a 	or	r2,r2,r3
 4083d98:	8080030d 	sth	r2,12(r16)
 4083d9c:	9000311e 	bne	r18,zero,4083e64 <_fseeko_r+0x2ac>
 4083da0:	a82d883a 	mov	r22,r21
 4083da4:	b800371e 	bne	r23,zero,4083e84 <_fseeko_r+0x2cc>
 4083da8:	8080030b 	ldhu	r2,12(r16)
 4083dac:	1084000c 	andi	r2,r2,4096
 4083db0:	10007f26 	beq	r2,zero,4083fb0 <_fseeko_r+0x3f8>
 4083db4:	80801417 	ldw	r2,80(r16)
 4083db8:	81800117 	ldw	r6,4(r16)
 4083dbc:	81400c17 	ldw	r5,48(r16)
 4083dc0:	11a7c83a 	sub	r19,r2,r6
 4083dc4:	28008226 	beq	r5,zero,4083fd0 <_fseeko_r+0x418>
 4083dc8:	81c00f17 	ldw	r7,60(r16)
 4083dcc:	99e7c83a 	sub	r19,r19,r7
 4083dd0:	81000e17 	ldw	r4,56(r16)
 4083dd4:	80800417 	ldw	r2,16(r16)
 4083dd8:	99a7883a 	add	r19,r19,r6
 4083ddc:	2087c83a 	sub	r3,r4,r2
 4083de0:	98e7c83a 	sub	r19,r19,r3
 4083de4:	38c7883a 	add	r3,r7,r3
 4083de8:	b4c02b16 	blt	r22,r19,4083e98 <_fseeko_r+0x2e0>
 4083dec:	98c9883a 	add	r4,r19,r3
 4083df0:	b100292e 	bgeu	r22,r4,4083e98 <_fseeko_r+0x2e0>
 4083df4:	b4e7c83a 	sub	r19,r22,r19
 4083df8:	14c5883a 	add	r2,r2,r19
 4083dfc:	1ce7c83a 	sub	r19,r3,r19
 4083e00:	80800015 	stw	r2,0(r16)
 4083e04:	84c00115 	stw	r19,4(r16)
 4083e08:	28000526 	beq	r5,zero,4083e20 <_fseeko_r+0x268>
 4083e0c:	80801004 	addi	r2,r16,64
 4083e10:	28800226 	beq	r5,r2,4083e1c <_fseeko_r+0x264>
 4083e14:	8809883a 	mov	r4,r17
 4083e18:	408382c0 	call	408382c <_free_r>
 4083e1c:	80000c15 	stw	zero,48(r16)
 4083e20:	8080030b 	ldhu	r2,12(r16)
 4083e24:	01800204 	movi	r6,8
 4083e28:	000b883a 	mov	r5,zero
 4083e2c:	10bff7cc 	andi	r2,r2,65503
 4083e30:	8080030d 	sth	r2,12(r16)
 4083e34:	81001704 	addi	r4,r16,92
 4083e38:	4084bec0 	call	4084bec <memset>
 4083e3c:	0027883a 	mov	r19,zero
 4083e40:	003f7c06 	br	4083c34 <__alt_mem_dma_read_memory+0xfff82c34>
 4083e44:	80c00117 	ldw	r3,4(r16)
 4083e48:	80800c17 	ldw	r2,48(r16)
 4083e4c:	98e7c83a 	sub	r19,r19,r3
 4083e50:	10003b26 	beq	r2,zero,4083f40 <_fseeko_r+0x388>
 4083e54:	80c00f17 	ldw	r3,60(r16)
 4083e58:	80800417 	ldw	r2,16(r16)
 4083e5c:	98e7c83a 	sub	r19,r19,r3
 4083e60:	003fbc06 	br	4083d54 <__alt_mem_dma_read_memory+0xfff82d54>
 4083e64:	8140038f 	ldh	r5,14(r16)
 4083e68:	d80d883a 	mov	r6,sp
 4083e6c:	8809883a 	mov	r4,r17
 4083e70:	40840180 	call	4084018 <_fstat_r>
 4083e74:	103f891e 	bne	r2,zero,4083c9c <__alt_mem_dma_read_memory+0xfff82c9c>
 4083e78:	dd800417 	ldw	r22,16(sp)
 4083e7c:	adad883a 	add	r22,r21,r22
 4083e80:	b83fc926 	beq	r23,zero,4083da8 <__alt_mem_dma_read_memory+0xfff82da8>
 4083e84:	81400c17 	ldw	r5,48(r16)
 4083e88:	81800117 	ldw	r6,4(r16)
 4083e8c:	28005026 	beq	r5,zero,4083fd0 <_fseeko_r+0x418>
 4083e90:	81c00f17 	ldw	r7,60(r16)
 4083e94:	003fce06 	br	4083dd0 <__alt_mem_dma_read_memory+0xfff82dd0>
 4083e98:	84c01317 	ldw	r19,76(r16)
 4083e9c:	81400717 	ldw	r5,28(r16)
 4083ea0:	000f883a 	mov	r7,zero
 4083ea4:	04e7c83a 	sub	r19,zero,r19
 4083ea8:	9da6703a 	and	r19,r19,r22
 4083eac:	980d883a 	mov	r6,r19
 4083eb0:	8809883a 	mov	r4,r17
 4083eb4:	a03ee83a 	callr	r20
 4083eb8:	00ffffc4 	movi	r3,-1
 4083ebc:	10ff7726 	beq	r2,r3,4083c9c <__alt_mem_dma_read_memory+0xfff82c9c>
 4083ec0:	80800417 	ldw	r2,16(r16)
 4083ec4:	81400c17 	ldw	r5,48(r16)
 4083ec8:	80000115 	stw	zero,4(r16)
 4083ecc:	80800015 	stw	r2,0(r16)
 4083ed0:	28000526 	beq	r5,zero,4083ee8 <_fseeko_r+0x330>
 4083ed4:	80801004 	addi	r2,r16,64
 4083ed8:	28800226 	beq	r5,r2,4083ee4 <_fseeko_r+0x32c>
 4083edc:	8809883a 	mov	r4,r17
 4083ee0:	408382c0 	call	408382c <_free_r>
 4083ee4:	80000c15 	stw	zero,48(r16)
 4083ee8:	8080030b 	ldhu	r2,12(r16)
 4083eec:	b4e7c83a 	sub	r19,r22,r19
 4083ef0:	10bff7cc 	andi	r2,r2,65503
 4083ef4:	8080030d 	sth	r2,12(r16)
 4083ef8:	98000b26 	beq	r19,zero,4083f28 <_fseeko_r+0x370>
 4083efc:	800b883a 	mov	r5,r16
 4083f00:	8809883a 	mov	r4,r17
 4083f04:	4084ed00 	call	4084ed0 <__srefill_r>
 4083f08:	103f641e 	bne	r2,zero,4083c9c <__alt_mem_dma_read_memory+0xfff82c9c>
 4083f0c:	80800117 	ldw	r2,4(r16)
 4083f10:	14ff6236 	bltu	r2,r19,4083c9c <__alt_mem_dma_read_memory+0xfff82c9c>
 4083f14:	80c00017 	ldw	r3,0(r16)
 4083f18:	14c5c83a 	sub	r2,r2,r19
 4083f1c:	80800115 	stw	r2,4(r16)
 4083f20:	1ce7883a 	add	r19,r3,r19
 4083f24:	84c00015 	stw	r19,0(r16)
 4083f28:	01800204 	movi	r6,8
 4083f2c:	000b883a 	mov	r5,zero
 4083f30:	81001704 	addi	r4,r16,92
 4083f34:	4084bec0 	call	4084bec <memset>
 4083f38:	0027883a 	mov	r19,zero
 4083f3c:	003f3d06 	br	4083c34 <__alt_mem_dma_read_memory+0xfff82c34>
 4083f40:	80800417 	ldw	r2,16(r16)
 4083f44:	003f8306 	br	4083d54 <__alt_mem_dma_read_memory+0xfff82d54>
 4083f48:	81400717 	ldw	r5,28(r16)
 4083f4c:	900f883a 	mov	r7,r18
 4083f50:	000d883a 	mov	r6,zero
 4083f54:	8809883a 	mov	r4,r17
 4083f58:	a03ee83a 	callr	r20
 4083f5c:	1027883a 	mov	r19,r2
 4083f60:	00bfffc4 	movi	r2,-1
 4083f64:	98bf3226 	beq	r19,r2,4083c30 <__alt_mem_dma_read_memory+0xfff82c30>
 4083f68:	8080030b 	ldhu	r2,12(r16)
 4083f6c:	003f7006 	br	4083d30 <__alt_mem_dma_read_memory+0xfff82d30>
 4083f70:	8140038f 	ldh	r5,14(r16)
 4083f74:	283f4716 	blt	r5,zero,4083c94 <__alt_mem_dma_read_memory+0xfff82c94>
 4083f78:	d80d883a 	mov	r6,sp
 4083f7c:	8809883a 	mov	r4,r17
 4083f80:	40840180 	call	4084018 <_fstat_r>
 4083f84:	1000041e 	bne	r2,zero,4083f98 <_fseeko_r+0x3e0>
 4083f88:	d8800117 	ldw	r2,4(sp)
 4083f8c:	00e00014 	movui	r3,32768
 4083f90:	10bc000c 	andi	r2,r2,61440
 4083f94:	10ff7c26 	beq	r2,r3,4083d88 <__alt_mem_dma_read_memory+0xfff82d88>
 4083f98:	8080030b 	ldhu	r2,12(r16)
 4083f9c:	003f3d06 	br	4083c94 <__alt_mem_dma_read_memory+0xfff82c94>
 4083fa0:	800b883a 	mov	r5,r16
 4083fa4:	8809883a 	mov	r4,r17
 4083fa8:	40841fc0 	call	40841fc <__smakebuf_r>
 4083fac:	003f3106 	br	4083c74 <__alt_mem_dma_read_memory+0xfff82c74>
 4083fb0:	81400717 	ldw	r5,28(r16)
 4083fb4:	01c00044 	movi	r7,1
 4083fb8:	000d883a 	mov	r6,zero
 4083fbc:	8809883a 	mov	r4,r17
 4083fc0:	a03ee83a 	callr	r20
 4083fc4:	00ffffc4 	movi	r3,-1
 4083fc8:	10ff7b1e 	bne	r2,r3,4083db8 <__alt_mem_dma_read_memory+0xfff82db8>
 4083fcc:	003f3306 	br	4083c9c <__alt_mem_dma_read_memory+0xfff82c9c>
 4083fd0:	80c00017 	ldw	r3,0(r16)
 4083fd4:	80800417 	ldw	r2,16(r16)
 4083fd8:	000b883a 	mov	r5,zero
 4083fdc:	1887c83a 	sub	r3,r3,r2
 4083fe0:	98e7c83a 	sub	r19,r19,r3
 4083fe4:	30c7883a 	add	r3,r6,r3
 4083fe8:	003f7f06 	br	4083de8 <__alt_mem_dma_read_memory+0xfff82de8>
 4083fec:	00800744 	movi	r2,29
 4083ff0:	88800015 	stw	r2,0(r17)
 4083ff4:	04ffffc4 	movi	r19,-1
 4083ff8:	003f0e06 	br	4083c34 <__alt_mem_dma_read_memory+0xfff82c34>

04083ffc <fseeko>:
 4083ffc:	00800034 	movhi	r2,0
 4084000:	1088e704 	addi	r2,r2,9116
 4084004:	300f883a 	mov	r7,r6
 4084008:	280d883a 	mov	r6,r5
 408400c:	200b883a 	mov	r5,r4
 4084010:	11000017 	ldw	r4,0(r2)
 4084014:	4083bb81 	jmpi	4083bb8 <_fseeko_r>

04084018 <_fstat_r>:
 4084018:	defffd04 	addi	sp,sp,-12
 408401c:	2805883a 	mov	r2,r5
 4084020:	dc000015 	stw	r16,0(sp)
 4084024:	04000034 	movhi	r16,0
 4084028:	dc400115 	stw	r17,4(sp)
 408402c:	84090f04 	addi	r16,r16,9276
 4084030:	2023883a 	mov	r17,r4
 4084034:	300b883a 	mov	r5,r6
 4084038:	1009883a 	mov	r4,r2
 408403c:	dfc00215 	stw	ra,8(sp)
 4084040:	80000015 	stw	zero,0(r16)
 4084044:	4098bdc0 	call	4098bdc <fstat>
 4084048:	00ffffc4 	movi	r3,-1
 408404c:	10c00526 	beq	r2,r3,4084064 <_fstat_r+0x4c>
 4084050:	dfc00217 	ldw	ra,8(sp)
 4084054:	dc400117 	ldw	r17,4(sp)
 4084058:	dc000017 	ldw	r16,0(sp)
 408405c:	dec00304 	addi	sp,sp,12
 4084060:	f800283a 	ret
 4084064:	80c00017 	ldw	r3,0(r16)
 4084068:	183ff926 	beq	r3,zero,4084050 <__alt_mem_dma_read_memory+0xfff83050>
 408406c:	88c00015 	stw	r3,0(r17)
 4084070:	003ff706 	br	4084050 <__alt_mem_dma_read_memory+0xfff83050>

04084074 <_fwalk>:
 4084074:	defff704 	addi	sp,sp,-36
 4084078:	dd000415 	stw	r20,16(sp)
 408407c:	dfc00815 	stw	ra,32(sp)
 4084080:	ddc00715 	stw	r23,28(sp)
 4084084:	dd800615 	stw	r22,24(sp)
 4084088:	dd400515 	stw	r21,20(sp)
 408408c:	dcc00315 	stw	r19,12(sp)
 4084090:	dc800215 	stw	r18,8(sp)
 4084094:	dc400115 	stw	r17,4(sp)
 4084098:	dc000015 	stw	r16,0(sp)
 408409c:	2500b804 	addi	r20,r4,736
 40840a0:	a0002326 	beq	r20,zero,4084130 <_fwalk+0xbc>
 40840a4:	282b883a 	mov	r21,r5
 40840a8:	002f883a 	mov	r23,zero
 40840ac:	05800044 	movi	r22,1
 40840b0:	04ffffc4 	movi	r19,-1
 40840b4:	a4400117 	ldw	r17,4(r20)
 40840b8:	a4800217 	ldw	r18,8(r20)
 40840bc:	8c7fffc4 	addi	r17,r17,-1
 40840c0:	88000d16 	blt	r17,zero,40840f8 <_fwalk+0x84>
 40840c4:	94000304 	addi	r16,r18,12
 40840c8:	94800384 	addi	r18,r18,14
 40840cc:	8080000b 	ldhu	r2,0(r16)
 40840d0:	8c7fffc4 	addi	r17,r17,-1
 40840d4:	813ffd04 	addi	r4,r16,-12
 40840d8:	b080042e 	bgeu	r22,r2,40840ec <_fwalk+0x78>
 40840dc:	9080000f 	ldh	r2,0(r18)
 40840e0:	14c00226 	beq	r2,r19,40840ec <_fwalk+0x78>
 40840e4:	a83ee83a 	callr	r21
 40840e8:	b8aeb03a 	or	r23,r23,r2
 40840ec:	84001a04 	addi	r16,r16,104
 40840f0:	94801a04 	addi	r18,r18,104
 40840f4:	8cfff51e 	bne	r17,r19,40840cc <__alt_mem_dma_read_memory+0xfff830cc>
 40840f8:	a5000017 	ldw	r20,0(r20)
 40840fc:	a03fed1e 	bne	r20,zero,40840b4 <__alt_mem_dma_read_memory+0xfff830b4>
 4084100:	b805883a 	mov	r2,r23
 4084104:	dfc00817 	ldw	ra,32(sp)
 4084108:	ddc00717 	ldw	r23,28(sp)
 408410c:	dd800617 	ldw	r22,24(sp)
 4084110:	dd400517 	ldw	r21,20(sp)
 4084114:	dd000417 	ldw	r20,16(sp)
 4084118:	dcc00317 	ldw	r19,12(sp)
 408411c:	dc800217 	ldw	r18,8(sp)
 4084120:	dc400117 	ldw	r17,4(sp)
 4084124:	dc000017 	ldw	r16,0(sp)
 4084128:	dec00904 	addi	sp,sp,36
 408412c:	f800283a 	ret
 4084130:	002f883a 	mov	r23,zero
 4084134:	003ff206 	br	4084100 <__alt_mem_dma_read_memory+0xfff83100>

04084138 <_fwalk_reent>:
 4084138:	defff704 	addi	sp,sp,-36
 408413c:	dd000415 	stw	r20,16(sp)
 4084140:	dfc00815 	stw	ra,32(sp)
 4084144:	ddc00715 	stw	r23,28(sp)
 4084148:	dd800615 	stw	r22,24(sp)
 408414c:	dd400515 	stw	r21,20(sp)
 4084150:	dcc00315 	stw	r19,12(sp)
 4084154:	dc800215 	stw	r18,8(sp)
 4084158:	dc400115 	stw	r17,4(sp)
 408415c:	dc000015 	stw	r16,0(sp)
 4084160:	2500b804 	addi	r20,r4,736
 4084164:	a0002326 	beq	r20,zero,40841f4 <_fwalk_reent+0xbc>
 4084168:	282b883a 	mov	r21,r5
 408416c:	2027883a 	mov	r19,r4
 4084170:	002f883a 	mov	r23,zero
 4084174:	05800044 	movi	r22,1
 4084178:	04bfffc4 	movi	r18,-1
 408417c:	a4400117 	ldw	r17,4(r20)
 4084180:	a4000217 	ldw	r16,8(r20)
 4084184:	8c7fffc4 	addi	r17,r17,-1
 4084188:	88000c16 	blt	r17,zero,40841bc <_fwalk_reent+0x84>
 408418c:	84000304 	addi	r16,r16,12
 4084190:	8080000b 	ldhu	r2,0(r16)
 4084194:	8c7fffc4 	addi	r17,r17,-1
 4084198:	817ffd04 	addi	r5,r16,-12
 408419c:	b080052e 	bgeu	r22,r2,40841b4 <_fwalk_reent+0x7c>
 40841a0:	8080008f 	ldh	r2,2(r16)
 40841a4:	9809883a 	mov	r4,r19
 40841a8:	14800226 	beq	r2,r18,40841b4 <_fwalk_reent+0x7c>
 40841ac:	a83ee83a 	callr	r21
 40841b0:	b8aeb03a 	or	r23,r23,r2
 40841b4:	84001a04 	addi	r16,r16,104
 40841b8:	8cbff51e 	bne	r17,r18,4084190 <__alt_mem_dma_read_memory+0xfff83190>
 40841bc:	a5000017 	ldw	r20,0(r20)
 40841c0:	a03fee1e 	bne	r20,zero,408417c <__alt_mem_dma_read_memory+0xfff8317c>
 40841c4:	b805883a 	mov	r2,r23
 40841c8:	dfc00817 	ldw	ra,32(sp)
 40841cc:	ddc00717 	ldw	r23,28(sp)
 40841d0:	dd800617 	ldw	r22,24(sp)
 40841d4:	dd400517 	ldw	r21,20(sp)
 40841d8:	dd000417 	ldw	r20,16(sp)
 40841dc:	dcc00317 	ldw	r19,12(sp)
 40841e0:	dc800217 	ldw	r18,8(sp)
 40841e4:	dc400117 	ldw	r17,4(sp)
 40841e8:	dc000017 	ldw	r16,0(sp)
 40841ec:	dec00904 	addi	sp,sp,36
 40841f0:	f800283a 	ret
 40841f4:	002f883a 	mov	r23,zero
 40841f8:	003ff206 	br	40841c4 <__alt_mem_dma_read_memory+0xfff831c4>

040841fc <__smakebuf_r>:
 40841fc:	2880030b 	ldhu	r2,12(r5)
 4084200:	10c0008c 	andi	r3,r2,2
 4084204:	1800411e 	bne	r3,zero,408430c <__smakebuf_r+0x110>
 4084208:	deffec04 	addi	sp,sp,-80
 408420c:	dc000f15 	stw	r16,60(sp)
 4084210:	2821883a 	mov	r16,r5
 4084214:	2940038f 	ldh	r5,14(r5)
 4084218:	dc401015 	stw	r17,64(sp)
 408421c:	dfc01315 	stw	ra,76(sp)
 4084220:	dcc01215 	stw	r19,72(sp)
 4084224:	dc801115 	stw	r18,68(sp)
 4084228:	2023883a 	mov	r17,r4
 408422c:	28001c16 	blt	r5,zero,40842a0 <__smakebuf_r+0xa4>
 4084230:	d80d883a 	mov	r6,sp
 4084234:	40840180 	call	4084018 <_fstat_r>
 4084238:	10001816 	blt	r2,zero,408429c <__smakebuf_r+0xa0>
 408423c:	d8800117 	ldw	r2,4(sp)
 4084240:	00e00014 	movui	r3,32768
 4084244:	10bc000c 	andi	r2,r2,61440
 4084248:	14c80020 	cmpeqi	r19,r2,8192
 408424c:	10c03726 	beq	r2,r3,408432c <__smakebuf_r+0x130>
 4084250:	80c0030b 	ldhu	r3,12(r16)
 4084254:	18c20014 	ori	r3,r3,2048
 4084258:	80c0030d 	sth	r3,12(r16)
 408425c:	00c80004 	movi	r3,8192
 4084260:	10c0521e 	bne	r2,r3,40843ac <__smakebuf_r+0x1b0>
 4084264:	8140038f 	ldh	r5,14(r16)
 4084268:	8809883a 	mov	r4,r17
 408426c:	408b2000 	call	408b200 <_isatty_r>
 4084270:	10004c26 	beq	r2,zero,40843a4 <__smakebuf_r+0x1a8>
 4084274:	8080030b 	ldhu	r2,12(r16)
 4084278:	80c010c4 	addi	r3,r16,67
 408427c:	80c00015 	stw	r3,0(r16)
 4084280:	10800054 	ori	r2,r2,1
 4084284:	8080030d 	sth	r2,12(r16)
 4084288:	00800044 	movi	r2,1
 408428c:	80c00415 	stw	r3,16(r16)
 4084290:	80800515 	stw	r2,20(r16)
 4084294:	04810004 	movi	r18,1024
 4084298:	00000706 	br	40842b8 <__smakebuf_r+0xbc>
 408429c:	8080030b 	ldhu	r2,12(r16)
 40842a0:	10c0200c 	andi	r3,r2,128
 40842a4:	18001f1e 	bne	r3,zero,4084324 <__smakebuf_r+0x128>
 40842a8:	04810004 	movi	r18,1024
 40842ac:	10820014 	ori	r2,r2,2048
 40842b0:	8080030d 	sth	r2,12(r16)
 40842b4:	0027883a 	mov	r19,zero
 40842b8:	900b883a 	mov	r5,r18
 40842bc:	8809883a 	mov	r4,r17
 40842c0:	40843e00 	call	40843e0 <_malloc_r>
 40842c4:	10002c26 	beq	r2,zero,4084378 <__smakebuf_r+0x17c>
 40842c8:	80c0030b 	ldhu	r3,12(r16)
 40842cc:	01010234 	movhi	r4,1032
 40842d0:	210c9904 	addi	r4,r4,12900
 40842d4:	89000f15 	stw	r4,60(r17)
 40842d8:	18c02014 	ori	r3,r3,128
 40842dc:	80c0030d 	sth	r3,12(r16)
 40842e0:	80800015 	stw	r2,0(r16)
 40842e4:	80800415 	stw	r2,16(r16)
 40842e8:	84800515 	stw	r18,20(r16)
 40842ec:	98001a1e 	bne	r19,zero,4084358 <__smakebuf_r+0x15c>
 40842f0:	dfc01317 	ldw	ra,76(sp)
 40842f4:	dcc01217 	ldw	r19,72(sp)
 40842f8:	dc801117 	ldw	r18,68(sp)
 40842fc:	dc401017 	ldw	r17,64(sp)
 4084300:	dc000f17 	ldw	r16,60(sp)
 4084304:	dec01404 	addi	sp,sp,80
 4084308:	f800283a 	ret
 408430c:	288010c4 	addi	r2,r5,67
 4084310:	28800015 	stw	r2,0(r5)
 4084314:	28800415 	stw	r2,16(r5)
 4084318:	00800044 	movi	r2,1
 408431c:	28800515 	stw	r2,20(r5)
 4084320:	f800283a 	ret
 4084324:	04801004 	movi	r18,64
 4084328:	003fe006 	br	40842ac <__alt_mem_dma_read_memory+0xfff832ac>
 408432c:	81000a17 	ldw	r4,40(r16)
 4084330:	00c10234 	movhi	r3,1032
 4084334:	18d47404 	addi	r3,r3,20944
 4084338:	20ffc51e 	bne	r4,r3,4084250 <__alt_mem_dma_read_memory+0xfff83250>
 408433c:	8080030b 	ldhu	r2,12(r16)
 4084340:	04810004 	movi	r18,1024
 4084344:	84801315 	stw	r18,76(r16)
 4084348:	1484b03a 	or	r2,r2,r18
 408434c:	8080030d 	sth	r2,12(r16)
 4084350:	0027883a 	mov	r19,zero
 4084354:	003fd806 	br	40842b8 <__alt_mem_dma_read_memory+0xfff832b8>
 4084358:	8140038f 	ldh	r5,14(r16)
 408435c:	8809883a 	mov	r4,r17
 4084360:	408b2000 	call	408b200 <_isatty_r>
 4084364:	103fe226 	beq	r2,zero,40842f0 <__alt_mem_dma_read_memory+0xfff832f0>
 4084368:	8080030b 	ldhu	r2,12(r16)
 408436c:	10800054 	ori	r2,r2,1
 4084370:	8080030d 	sth	r2,12(r16)
 4084374:	003fde06 	br	40842f0 <__alt_mem_dma_read_memory+0xfff832f0>
 4084378:	8080030b 	ldhu	r2,12(r16)
 408437c:	10c0800c 	andi	r3,r2,512
 4084380:	183fdb1e 	bne	r3,zero,40842f0 <__alt_mem_dma_read_memory+0xfff832f0>
 4084384:	10800094 	ori	r2,r2,2
 4084388:	80c010c4 	addi	r3,r16,67
 408438c:	8080030d 	sth	r2,12(r16)
 4084390:	00800044 	movi	r2,1
 4084394:	80c00015 	stw	r3,0(r16)
 4084398:	80c00415 	stw	r3,16(r16)
 408439c:	80800515 	stw	r2,20(r16)
 40843a0:	003fd306 	br	40842f0 <__alt_mem_dma_read_memory+0xfff832f0>
 40843a4:	04810004 	movi	r18,1024
 40843a8:	003fc306 	br	40842b8 <__alt_mem_dma_read_memory+0xfff832b8>
 40843ac:	0027883a 	mov	r19,zero
 40843b0:	04810004 	movi	r18,1024
 40843b4:	003fc006 	br	40842b8 <__alt_mem_dma_read_memory+0xfff832b8>

040843b8 <malloc>:
 40843b8:	00800034 	movhi	r2,0
 40843bc:	1088e704 	addi	r2,r2,9116
 40843c0:	200b883a 	mov	r5,r4
 40843c4:	11000017 	ldw	r4,0(r2)
 40843c8:	40843e01 	jmpi	40843e0 <_malloc_r>

040843cc <free>:
 40843cc:	00800034 	movhi	r2,0
 40843d0:	1088e704 	addi	r2,r2,9116
 40843d4:	200b883a 	mov	r5,r4
 40843d8:	11000017 	ldw	r4,0(r2)
 40843dc:	408382c1 	jmpi	408382c <_free_r>

040843e0 <_malloc_r>:
 40843e0:	defff504 	addi	sp,sp,-44
 40843e4:	dc800315 	stw	r18,12(sp)
 40843e8:	dfc00a15 	stw	ra,40(sp)
 40843ec:	df000915 	stw	fp,36(sp)
 40843f0:	ddc00815 	stw	r23,32(sp)
 40843f4:	dd800715 	stw	r22,28(sp)
 40843f8:	dd400615 	stw	r21,24(sp)
 40843fc:	dd000515 	stw	r20,20(sp)
 4084400:	dcc00415 	stw	r19,16(sp)
 4084404:	dc400215 	stw	r17,8(sp)
 4084408:	dc000115 	stw	r16,4(sp)
 408440c:	288002c4 	addi	r2,r5,11
 4084410:	00c00584 	movi	r3,22
 4084414:	2025883a 	mov	r18,r4
 4084418:	18807f2e 	bgeu	r3,r2,4084618 <_malloc_r+0x238>
 408441c:	047ffe04 	movi	r17,-8
 4084420:	1462703a 	and	r17,r2,r17
 4084424:	8800a316 	blt	r17,zero,40846b4 <_malloc_r+0x2d4>
 4084428:	8940a236 	bltu	r17,r5,40846b4 <_malloc_r+0x2d4>
 408442c:	4098fe40 	call	4098fe4 <__malloc_lock>
 4084430:	00807dc4 	movi	r2,503
 4084434:	1441e92e 	bgeu	r2,r17,4084bdc <_malloc_r+0x7fc>
 4084438:	8804d27a 	srli	r2,r17,9
 408443c:	1000a126 	beq	r2,zero,40846c4 <_malloc_r+0x2e4>
 4084440:	00c00104 	movi	r3,4
 4084444:	18811e36 	bltu	r3,r2,40848c0 <_malloc_r+0x4e0>
 4084448:	8804d1ba 	srli	r2,r17,6
 408444c:	12000e44 	addi	r8,r2,57
 4084450:	11c00e04 	addi	r7,r2,56
 4084454:	4209883a 	add	r4,r8,r8
 4084458:	04c00034 	movhi	r19,0
 408445c:	2109883a 	add	r4,r4,r4
 4084460:	9cc30304 	addi	r19,r19,3084
 4084464:	2109883a 	add	r4,r4,r4
 4084468:	9909883a 	add	r4,r19,r4
 408446c:	24000117 	ldw	r16,4(r4)
 4084470:	213ffe04 	addi	r4,r4,-8
 4084474:	24009726 	beq	r4,r16,40846d4 <_malloc_r+0x2f4>
 4084478:	80800117 	ldw	r2,4(r16)
 408447c:	01bfff04 	movi	r6,-4
 4084480:	014003c4 	movi	r5,15
 4084484:	1184703a 	and	r2,r2,r6
 4084488:	1447c83a 	sub	r3,r2,r17
 408448c:	28c00716 	blt	r5,r3,40844ac <_malloc_r+0xcc>
 4084490:	1800920e 	bge	r3,zero,40846dc <_malloc_r+0x2fc>
 4084494:	84000317 	ldw	r16,12(r16)
 4084498:	24008e26 	beq	r4,r16,40846d4 <_malloc_r+0x2f4>
 408449c:	80800117 	ldw	r2,4(r16)
 40844a0:	1184703a 	and	r2,r2,r6
 40844a4:	1447c83a 	sub	r3,r2,r17
 40844a8:	28fff90e 	bge	r5,r3,4084490 <__alt_mem_dma_read_memory+0xfff83490>
 40844ac:	3809883a 	mov	r4,r7
 40844b0:	01800034 	movhi	r6,0
 40844b4:	9c000417 	ldw	r16,16(r19)
 40844b8:	31830304 	addi	r6,r6,3084
 40844bc:	32000204 	addi	r8,r6,8
 40844c0:	82013426 	beq	r16,r8,4084994 <_malloc_r+0x5b4>
 40844c4:	80c00117 	ldw	r3,4(r16)
 40844c8:	00bfff04 	movi	r2,-4
 40844cc:	188e703a 	and	r7,r3,r2
 40844d0:	3c45c83a 	sub	r2,r7,r17
 40844d4:	00c003c4 	movi	r3,15
 40844d8:	18811f16 	blt	r3,r2,4084958 <_malloc_r+0x578>
 40844dc:	32000515 	stw	r8,20(r6)
 40844e0:	32000415 	stw	r8,16(r6)
 40844e4:	10007f0e 	bge	r2,zero,40846e4 <_malloc_r+0x304>
 40844e8:	00807fc4 	movi	r2,511
 40844ec:	11c0fd36 	bltu	r2,r7,40848e4 <_malloc_r+0x504>
 40844f0:	3806d0fa 	srli	r3,r7,3
 40844f4:	01c00044 	movi	r7,1
 40844f8:	30800117 	ldw	r2,4(r6)
 40844fc:	19400044 	addi	r5,r3,1
 4084500:	294b883a 	add	r5,r5,r5
 4084504:	1807d0ba 	srai	r3,r3,2
 4084508:	294b883a 	add	r5,r5,r5
 408450c:	294b883a 	add	r5,r5,r5
 4084510:	298b883a 	add	r5,r5,r6
 4084514:	38c6983a 	sll	r3,r7,r3
 4084518:	29c00017 	ldw	r7,0(r5)
 408451c:	2a7ffe04 	addi	r9,r5,-8
 4084520:	1886b03a 	or	r3,r3,r2
 4084524:	82400315 	stw	r9,12(r16)
 4084528:	81c00215 	stw	r7,8(r16)
 408452c:	30c00115 	stw	r3,4(r6)
 4084530:	2c000015 	stw	r16,0(r5)
 4084534:	3c000315 	stw	r16,12(r7)
 4084538:	2005d0ba 	srai	r2,r4,2
 408453c:	01400044 	movi	r5,1
 4084540:	288a983a 	sll	r5,r5,r2
 4084544:	19406f36 	bltu	r3,r5,4084704 <_malloc_r+0x324>
 4084548:	28c4703a 	and	r2,r5,r3
 408454c:	10000a1e 	bne	r2,zero,4084578 <_malloc_r+0x198>
 4084550:	00bfff04 	movi	r2,-4
 4084554:	294b883a 	add	r5,r5,r5
 4084558:	2088703a 	and	r4,r4,r2
 408455c:	28c4703a 	and	r2,r5,r3
 4084560:	21000104 	addi	r4,r4,4
 4084564:	1000041e 	bne	r2,zero,4084578 <_malloc_r+0x198>
 4084568:	294b883a 	add	r5,r5,r5
 408456c:	28c4703a 	and	r2,r5,r3
 4084570:	21000104 	addi	r4,r4,4
 4084574:	103ffc26 	beq	r2,zero,4084568 <__alt_mem_dma_read_memory+0xfff83568>
 4084578:	02bfff04 	movi	r10,-4
 408457c:	024003c4 	movi	r9,15
 4084580:	21800044 	addi	r6,r4,1
 4084584:	318d883a 	add	r6,r6,r6
 4084588:	318d883a 	add	r6,r6,r6
 408458c:	318d883a 	add	r6,r6,r6
 4084590:	998d883a 	add	r6,r19,r6
 4084594:	333ffe04 	addi	r12,r6,-8
 4084598:	2017883a 	mov	r11,r4
 408459c:	31800104 	addi	r6,r6,4
 40845a0:	34000017 	ldw	r16,0(r6)
 40845a4:	31fffd04 	addi	r7,r6,-12
 40845a8:	81c0041e 	bne	r16,r7,40845bc <_malloc_r+0x1dc>
 40845ac:	0000fb06 	br	408499c <_malloc_r+0x5bc>
 40845b0:	1801030e 	bge	r3,zero,40849c0 <_malloc_r+0x5e0>
 40845b4:	84000317 	ldw	r16,12(r16)
 40845b8:	81c0f826 	beq	r16,r7,408499c <_malloc_r+0x5bc>
 40845bc:	80800117 	ldw	r2,4(r16)
 40845c0:	1284703a 	and	r2,r2,r10
 40845c4:	1447c83a 	sub	r3,r2,r17
 40845c8:	48fff90e 	bge	r9,r3,40845b0 <__alt_mem_dma_read_memory+0xfff835b0>
 40845cc:	80800317 	ldw	r2,12(r16)
 40845d0:	81000217 	ldw	r4,8(r16)
 40845d4:	89400054 	ori	r5,r17,1
 40845d8:	81400115 	stw	r5,4(r16)
 40845dc:	20800315 	stw	r2,12(r4)
 40845e0:	11000215 	stw	r4,8(r2)
 40845e4:	8463883a 	add	r17,r16,r17
 40845e8:	9c400515 	stw	r17,20(r19)
 40845ec:	9c400415 	stw	r17,16(r19)
 40845f0:	18800054 	ori	r2,r3,1
 40845f4:	88800115 	stw	r2,4(r17)
 40845f8:	8a000315 	stw	r8,12(r17)
 40845fc:	8a000215 	stw	r8,8(r17)
 4084600:	88e3883a 	add	r17,r17,r3
 4084604:	88c00015 	stw	r3,0(r17)
 4084608:	9009883a 	mov	r4,r18
 408460c:	40990080 	call	4099008 <__malloc_unlock>
 4084610:	80800204 	addi	r2,r16,8
 4084614:	00001b06 	br	4084684 <_malloc_r+0x2a4>
 4084618:	04400404 	movi	r17,16
 408461c:	89402536 	bltu	r17,r5,40846b4 <_malloc_r+0x2d4>
 4084620:	4098fe40 	call	4098fe4 <__malloc_lock>
 4084624:	00800184 	movi	r2,6
 4084628:	01000084 	movi	r4,2
 408462c:	04c00034 	movhi	r19,0
 4084630:	1085883a 	add	r2,r2,r2
 4084634:	9cc30304 	addi	r19,r19,3084
 4084638:	1085883a 	add	r2,r2,r2
 408463c:	9885883a 	add	r2,r19,r2
 4084640:	14000117 	ldw	r16,4(r2)
 4084644:	10fffe04 	addi	r3,r2,-8
 4084648:	80c0d926 	beq	r16,r3,40849b0 <_malloc_r+0x5d0>
 408464c:	80c00117 	ldw	r3,4(r16)
 4084650:	81000317 	ldw	r4,12(r16)
 4084654:	00bfff04 	movi	r2,-4
 4084658:	1884703a 	and	r2,r3,r2
 408465c:	81400217 	ldw	r5,8(r16)
 4084660:	8085883a 	add	r2,r16,r2
 4084664:	10c00117 	ldw	r3,4(r2)
 4084668:	29000315 	stw	r4,12(r5)
 408466c:	21400215 	stw	r5,8(r4)
 4084670:	18c00054 	ori	r3,r3,1
 4084674:	10c00115 	stw	r3,4(r2)
 4084678:	9009883a 	mov	r4,r18
